GAS LISTING C:\Users\hag\AppData\Local\Temp/ccM7gxWE.s 			page 1


   1               		.file	"network.c"
   2               	__SREG__ = 0x3f
   3               	__SP_H__ = 0x3e
   4               	__SP_L__ = 0x3d
   5               	__CCP__  = 0x34
   6               	__tmp_reg__ = 0
   7               	__zero_reg__ = 1
   8               		.data
   9               	.LC0:
  10 0000 4669 6E64 		.string	"Find IIT RTU-Diagnostic Unit"
  10      2049 4954 
  10      2052 5455 
  10      2D44 6961 
  10      676E 6F73 
  11               	.LC1:
  12 001d 2D2D 2048 		.string	"-- Have UDP-Find packet\n\r"
  12      6176 6520 
  12      5544 502D 
  12      4669 6E64 
  12      2070 6163 
  13               	.LC2:
  14 0037 4669 6E64 		.string	"Find IIT RTU-Diagnostic Unit + Version"
  14      2049 4954 
  14      2052 5455 
  14      2D44 6961 
  14      676E 6F73 
  15               	.LC3:
  16 005e 4669 6E64 		.string	"Find IIT RTU-Diagnostic Unit + Version + LongNumber"
  16      2049 4954 
  16      2052 5455 
  16      2D44 6961 
  16      676E 6F73 
  17               	.LC4:
  18 0092 4949 5420 		.string	"IIT RTU-Diagnostic Unit"
  18      5254 552D 
  18      4469 6167 
  18      6E6F 7374 
  18      6963 2055 
  19               	.LC5:
  20 00aa 5365 7420 		.string	"Set IIT RTU-Diagnostic Unit"
  20      4949 5420 
  20      5254 552D 
  20      4469 6167 
  20      6E6F 7374 
  21               	.LC6:
  22 00c6 2D2D 2048 		.string	"-- Have UDP-Set packet\n\r"
  22      6176 6520 
  22      5544 502D 
  22      5365 7420 
  22      7061 636B 
  23               	.LC7:
  24 00df 5265 7365 		.string	"Reset IIT RTU-Diagnostic Unit"
  24      7420 4949 
  24      5420 5254 
  24      552D 4469 
  24      6167 6E6F 
  25               		.section	.text.UdpFind,"ax",@progbits
GAS LISTING C:\Users\hag\AppData\Local\Temp/ccM7gxWE.s 			page 2


  26               	.global	UdpFind
  27               		.type	UdpFind, @function
  28               	UdpFind:
  29 0000 DF93      		push r29
  30 0002 CF93      		push r28
  31 0004 CDB7      		in r28,__SP_L__
  32 0006 DEB7      		in r29,__SP_H__
  33 0008 2897      		sbiw r28,8
  34 000a 0FB6      		in __tmp_reg__,__SREG__
  35 000c F894      		cli
  36 000e DEBF      		out __SP_H__,r29
  37 0010 0FBE      		out __SREG__,__tmp_reg__
  38 0012 CDBF      		out __SP_L__,r28
  39               	/* prologue: function */
  40               	/* frame size = 8 */
  41 0014 8FE0      		ldi r24,lo8(9999)
  42 0016 97E2      		ldi r25,hi8(9999)
  43 0018 0E94 0000 		call NutUdpCreateSocket
  44 001c 3C01      		movw r6,r24
  45 001e 80E8      		ldi r24,lo8(128)
  46 0020 90E0      		ldi r25,hi8(128)
  47 0022 0E94 0000 		call malloc
  48 0026 2C01      		movw r4,r24
  49 0028 5C01      		movw r10,r24
  50 002a 4B96      		adiw r24,27
  51 002c 9887      		std Y+8,r25
  52 002e 8F83      		std Y+7,r24
  53 0030 BDE1      		ldi r27,lo8(29)
  54 0032 8B2E      		mov r8,r27
  55 0034 912C      		mov r9,__zero_reg__
  56 0036 840C      		add r8,r4
  57 0038 951C      		adc r9,r5
  58 003a ADE2      		ldi r26,lo8(45)
  59 003c 2A2E      		mov r2,r26
  60 003e 312C      		mov r3,__zero_reg__
  61 0040 240C      		add r2,r4
  62 0042 351C      		adc r3,r5
  63               	.L24:
  64 0044 C301      		movw r24,r6
  65 0046 BE01      		movw r22,r28
  66 0048 6D5F      		subi r22,lo8(-(3))
  67 004a 7F4F      		sbci r23,hi8(-(3))
  68 004c AE01      		movw r20,r28
  69 004e 4F5F      		subi r20,lo8(-(1))
  70 0050 5F4F      		sbci r21,hi8(-(1))
  71 0052 9501      		movw r18,r10
  72 0054 00E8      		ldi r16,lo8(128)
  73 0056 10E0      		ldi r17,hi8(128)
  74 0058 F8EC      		ldi r31,lo8(200)
  75 005a CF2E      		mov r12,r31
  76 005c D12C      		mov r13,__zero_reg__
  77 005e E12C      		mov r14,__zero_reg__
  78 0060 F12C      		mov r15,__zero_reg__
  79 0062 0E94 0000 		call NutUdpReceiveFrom
  80 0066 FC01      		movw r30,r24
  81 0068 0097      		sbiw r24,0
  82 006a 01F0      		breq .L24
GAS LISTING C:\Users\hag\AppData\Local\Temp/ccM7gxWE.s 			page 3


  83 006c EA0D      		add r30,r10
  84 006e FB1D      		adc r31,r11
  85 0070 1082      		st Z,__zero_reg__
  86 0072 C501      		movw r24,r10
  87 0074 60E0      		ldi r22,lo8(.LC0)
  88 0076 70E0      		ldi r23,hi8(.LC0)
  89 0078 4CE1      		ldi r20,lo8(28)
  90 007a 50E0      		ldi r21,hi8(28)
  91 007c 0E94 0000 		call strncmp
  92 0080 0097      		sbiw r24,0
  93 0082 01F0      		breq .+2
  94 0084 00C0      		rjmp .L3
  95 0086 00D0      		rcall .
  96 0088 E0E0      		ldi r30,lo8(.LC1)
  97 008a F0E0      		ldi r31,hi8(.LC1)
  98 008c ADB7      		in r26,__SP_L__
  99 008e BEB7      		in r27,__SP_H__
 100 0090 1296      		adiw r26,1+1
 101 0092 FC93      		st X,r31
 102 0094 EE93      		st -X,r30
 103 0096 1197      		sbiw r26,1
 104 0098 0E94 0000 		call printf
 105 009c 0F90      		pop __tmp_reg__
 106 009e 0F90      		pop __tmp_reg__
 107 00a0 C501      		movw r24,r10
 108 00a2 60E0      		ldi r22,lo8(.LC2)
 109 00a4 70E0      		ldi r23,hi8(.LC2)
 110 00a6 46E2      		ldi r20,lo8(38)
 111 00a8 50E0      		ldi r21,hi8(38)
 112 00aa 0E94 0000 		call strncmp
 113 00ae 7C01      		movw r14,r24
 114 00b0 C501      		movw r24,r10
 115 00b2 60E0      		ldi r22,lo8(.LC3)
 116 00b4 70E0      		ldi r23,hi8(.LC3)
 117 00b6 43E3      		ldi r20,lo8(51)
 118 00b8 50E0      		ldi r21,hi8(51)
 119 00ba 0E94 0000 		call strncmp
 120 00be DD24      		clr r13
 121 00c0 0097      		sbiw r24,0
 122 00c2 01F4      		brne .L4
 123 00c4 DD24      		clr r13
 124 00c6 D394      		inc r13
 125               	.L4:
 126 00c8 C501      		movw r24,r10
 127 00ca 60E0      		ldi r22,lo8(.LC4)
 128 00cc 70E0      		ldi r23,hi8(.LC4)
 129 00ce 0E94 0000 		call strcpy
 130 00d2 00E0      		ldi r16,lo8(confnet+10)
 131 00d4 10E0      		ldi r17,hi8(confnet+10)
 132 00d6 D201      		movw r26,r4
 133 00d8 F801      		movw r30,r16
 134               	.L5:
 135 00da 8191      		ld r24,Z+
 136 00dc 5796      		adiw r26,23
 137 00de 8C93      		st X,r24
 138 00e0 5797      		sbiw r26,23
 139 00e2 1196      		adiw r26,1
GAS LISTING C:\Users\hag\AppData\Local\Temp/ccM7gxWE.s 			page 4


 140 00e4 80E0      		ldi r24,hi8(confnet+16)
 141 00e6 E030      		cpi r30,lo8(confnet+16)
 142 00e8 F807      		cpc r31,r24
 143 00ea 01F4      		brne .L5
 144 00ec 8091 0000 		lds r24,confnet+16
 145 00f0 9091 0000 		lds r25,(confnet+16)+1
 146 00f4 A091 0000 		lds r26,(confnet+16)+2
 147 00f8 B091 0000 		lds r27,(confnet+16)+3
 148 00fc F401      		movw r30,r8
 149 00fe 8083      		st Z,r24
 150 0100 9183      		std Z+1,r25
 151 0102 A283      		std Z+2,r26
 152 0104 B383      		std Z+3,r27
 153 0106 8091 0000 		lds r24,confnet+20
 154 010a 9091 0000 		lds r25,(confnet+20)+1
 155 010e A091 0000 		lds r26,(confnet+20)+2
 156 0112 B091 0000 		lds r27,(confnet+20)+3
 157 0116 8483      		std Z+4,r24
 158 0118 9583      		std Z+5,r25
 159 011a A683      		std Z+6,r26
 160 011c B783      		std Z+7,r27
 161 011e 8091 0000 		lds r24,confnet+24
 162 0122 9091 0000 		lds r25,(confnet+24)+1
 163 0126 A091 0000 		lds r26,(confnet+24)+2
 164 012a B091 0000 		lds r27,(confnet+24)+3
 165 012e 8087      		std Z+8,r24
 166 0130 9187      		std Z+9,r25
 167 0132 A287      		std Z+10,r26
 168 0134 B387      		std Z+11,r27
 169 0136 0E94 0000 		call get_rtu_number
 170 013a 6B83      		std Y+3,r22
 171 013c 7C83      		std Y+4,r23
 172 013e 8D83      		std Y+5,r24
 173 0140 9E83      		std Y+6,r25
 174 0142 DD20      		tst r13
 175 0144 01F4      		brne .L6
 176 0146 D401      		movw r26,r8
 177 0148 1D96      		adiw r26,12+1
 178 014a 1C92      		st X,__zero_reg__
 179 014c 1E92      		st -X,__zero_reg__
 180 014e 1C97      		sbiw r26,12
 181 0150 00C0      		rjmp .L7
 182               	.L6:
 183 0152 F401      		movw r30,r8
 184 0154 7587      		std Z+13,r23
 185 0156 6487      		std Z+12,r22
 186               	.L7:
 187 0158 EDE0      		ldi r30,lo8(1293)
 188 015a F5E0      		ldi r31,hi8(1293)
 189 015c D401      		movw r26,r8
 190 015e 1F96      		adiw r26,14+1
 191 0160 FC93      		st X,r31
 192 0162 EE93      		st -X,r30
 193 0164 1E97      		sbiw r26,14
 194 0166 EF28      		or r14,r15
 195 0168 01F0      		breq .L8
 196 016a 2981      		ldd r18,Y+1
GAS LISTING C:\Users\hag\AppData\Local\Temp/ccM7gxWE.s 			page 5


 197 016c 3A81      		ldd r19,Y+2
 198 016e C301      		movw r24,r6
 199 0170 4FEF      		ldi r20,lo8(-1)
 200 0172 5FEF      		ldi r21,hi8(-1)
 201 0174 6FEF      		ldi r22,hlo8(-1)
 202 0176 7FEF      		ldi r23,hhi8(-1)
 203 0178 8501      		movw r16,r10
 204 017a EDE2      		ldi r30,lo8(45)
 205 017c EE2E      		mov r14,r30
 206 017e F12C      		mov r15,__zero_reg__
 207 0180 00C0      		rjmp .L25
 208               	.L8:
 209 0182 F101      		movw r30,r2
 210               	.L9:
 211 0184 D801      		movw r26,r16
 212 0186 8D91      		ld r24,X+
 213 0188 8D01      		movw r16,r26
 214 018a 8193      		st Z+,r24
 215 018c B0E0      		ldi r27,hi8(confnet+16)
 216 018e 0030      		cpi r16,lo8(confnet+16)
 217 0190 1B07      		cpc r17,r27
 218 0192 01F4      		brne .L9
 219 0194 0E94 0000 		call NutVersion
 220 0198 F401      		movw r30,r8
 221 019a 668B      		std Z+22,r22
 222 019c 778B      		std Z+23,r23
 223 019e 808F      		std Z+24,r24
 224 01a0 918F      		std Z+25,r25
 225 01a2 8FE6      		ldi r24,lo8(10607)
 226 01a4 99E2      		ldi r25,hi8(10607)
 227 01a6 A0E0      		ldi r26,hlo8(10607)
 228 01a8 B0E0      		ldi r27,hhi8(10607)
 229 01aa 828F      		std Z+26,r24
 230 01ac 938F      		std Z+27,r25
 231 01ae A48F      		std Z+28,r26
 232 01b0 B58F      		std Z+29,r27
 233 01b2 8EE4      		ldi r24,lo8(20090702)
 234 01b4 9FE8      		ldi r25,hi8(20090702)
 235 01b6 A2E3      		ldi r26,hlo8(20090702)
 236 01b8 B1E0      		ldi r27,hhi8(20090702)
 237 01ba 868F      		std Z+30,r24
 238 01bc 978F      		std Z+31,r25
 239 01be A0A3      		std Z+32,r26
 240 01c0 B1A3      		std Z+33,r27
 241 01c2 DD20      		tst r13
 242 01c4 01F0      		breq .L10
 243 01c6 8D81      		ldd r24,Y+5
 244 01c8 82A3      		std Z+34,r24
 245 01ca 2981      		ldd r18,Y+1
 246 01cc 3A81      		ldd r19,Y+2
 247 01ce C301      		movw r24,r6
 248 01d0 4FEF      		ldi r20,lo8(-1)
 249 01d2 5FEF      		ldi r21,hi8(-1)
 250 01d4 6FEF      		ldi r22,hlo8(-1)
 251 01d6 7FEF      		ldi r23,hhi8(-1)
 252 01d8 8501      		movw r16,r10
 253 01da B0E4      		ldi r27,lo8(64)
GAS LISTING C:\Users\hag\AppData\Local\Temp/ccM7gxWE.s 			page 6


 254 01dc EB2E      		mov r14,r27
 255 01de F12C      		mov r15,__zero_reg__
 256               	.L25:
 257 01e0 0E94 0000 		call NutUdpSendTo
 258 01e4 00C0      		rjmp .L24
 259               	.L10:
 260 01e6 2981      		ldd r18,Y+1
 261 01e8 3A81      		ldd r19,Y+2
 262 01ea C301      		movw r24,r6
 263 01ec 4FEF      		ldi r20,lo8(-1)
 264 01ee 5FEF      		ldi r21,hi8(-1)
 265 01f0 6FEF      		ldi r22,hlo8(-1)
 266 01f2 7FEF      		ldi r23,hhi8(-1)
 267 01f4 8501      		movw r16,r10
 268 01f6 AFE3      		ldi r26,lo8(63)
 269 01f8 EA2E      		mov r14,r26
 270 01fa F12C      		mov r15,__zero_reg__
 271 01fc 00C0      		rjmp .L25
 272               	.L3:
 273 01fe C501      		movw r24,r10
 274 0200 60E0      		ldi r22,lo8(.LC5)
 275 0202 70E0      		ldi r23,hi8(.LC5)
 276 0204 4BE1      		ldi r20,lo8(27)
 277 0206 50E0      		ldi r21,hi8(27)
 278 0208 0E94 0000 		call strncmp
 279 020c 0097      		sbiw r24,0
 280 020e 01F0      		breq .+2
 281 0210 00C0      		rjmp .L11
 282 0212 0F81      		ldd r16,Y+7
 283 0214 1885      		ldd r17,Y+8
 284 0216 F0E0      		ldi r31,lo8(confnet+10)
 285 0218 EF2E      		mov r14,r31
 286 021a F0E0      		ldi r31,hi8(confnet+10)
 287 021c FF2E      		mov r15,r31
 288 021e F701      		movw r30,r14
 289 0220 20E0      		ldi r18,lo8(0)
 290 0222 30E0      		ldi r19,hi8(0)
 291               	.L12:
 292 0224 D801      		movw r26,r16
 293 0226 9C91      		ld r25,X
 294 0228 8081      		ld r24,Z
 295 022a 9817      		cp r25,r24
 296 022c 01F0      		breq .+2
 297 022e 00C0      		rjmp .L24
 298 0230 2F5F      		subi r18,lo8(-(1))
 299 0232 3F4F      		sbci r19,hi8(-(1))
 300 0234 0F5F      		subi r16,lo8(-(1))
 301 0236 1F4F      		sbci r17,hi8(-(1))
 302 0238 3196      		adiw r30,1
 303 023a 2630      		cpi r18,6
 304 023c 3105      		cpc r19,__zero_reg__
 305 023e 01F4      		brne .L12
 306 0240 00D0      		rcall .
 307 0242 80E0      		ldi r24,lo8(.LC6)
 308 0244 90E0      		ldi r25,hi8(.LC6)
 309 0246 EDB7      		in r30,__SP_L__
 310 0248 FEB7      		in r31,__SP_H__
GAS LISTING C:\Users\hag\AppData\Local\Temp/ccM7gxWE.s 			page 7


 311 024a 9283      		std Z+2,r25
 312 024c 8183      		std Z+1,r24
 313 024e 0E94 0000 		call printf
 314 0252 F801      		movw r30,r16
 315 0254 8081      		ld r24,Z
 316 0256 9181      		ldd r25,Z+1
 317 0258 A281      		ldd r26,Z+2
 318 025a B381      		ldd r27,Z+3
 319 025c 8093 0000 		sts confnet+28,r24
 320 0260 9093 0000 		sts (confnet+28)+1,r25
 321 0264 A093 0000 		sts (confnet+28)+2,r26
 322 0268 B093 0000 		sts (confnet+28)+3,r27
 323 026c 8093 0000 		sts confnet+16,r24
 324 0270 9093 0000 		sts (confnet+16)+1,r25
 325 0274 A093 0000 		sts (confnet+16)+2,r26
 326 0278 B093 0000 		sts (confnet+16)+3,r27
 327 027c 8481      		ldd r24,Z+4
 328 027e 9581      		ldd r25,Z+5
 329 0280 A681      		ldd r26,Z+6
 330 0282 B781      		ldd r27,Z+7
 331 0284 8093 0000 		sts confnet+20,r24
 332 0288 9093 0000 		sts (confnet+20)+1,r25
 333 028c A093 0000 		sts (confnet+20)+2,r26
 334 0290 B093 0000 		sts (confnet+20)+3,r27
 335 0294 8085      		ldd r24,Z+8
 336 0296 9185      		ldd r25,Z+9
 337 0298 A285      		ldd r26,Z+10
 338 029a B385      		ldd r27,Z+11
 339 029c 8093 0000 		sts confnet+24,r24
 340 02a0 9093 0000 		sts (confnet+24)+1,r25
 341 02a4 A093 0000 		sts (confnet+24)+2,r26
 342 02a8 B093 0000 		sts (confnet+24)+3,r27
 343 02ac 8485      		ldd r24,Z+12
 344 02ae 9585      		ldd r25,Z+13
 345 02b0 9C01      		movw r18,r24
 346 02b2 40E0      		ldi r20,lo8(0)
 347 02b4 50E0      		ldi r21,hi8(0)
 348 02b6 2B83      		std Y+3,r18
 349 02b8 3C83      		std Y+4,r19
 350 02ba 4D83      		std Y+5,r20
 351 02bc 5E83      		std Y+6,r21
 352 02be B801      		movw r22,r16
 353 02c0 605F      		subi r22,lo8(-(16))
 354 02c2 7F4F      		sbci r23,hi8(-(16))
 355 02c4 0F90      		pop __tmp_reg__
 356 02c6 0F90      		pop __tmp_reg__
 357               	.L13:
 358 02c8 8089      		ldd r24,Z+16
 359 02ca D701      		movw r26,r14
 360 02cc 8D93      		st X+,r24
 361 02ce 7D01      		movw r14,r26
 362 02d0 3196      		adiw r30,1
 363 02d2 B0E0      		ldi r27,lo8(confnet+16)
 364 02d4 EB16      		cp r14,r27
 365 02d6 B0E0      		ldi r27,hi8(confnet+16)
 366 02d8 FB06      		cpc r15,r27
 367 02da 01F4      		brne .L13
GAS LISTING C:\Users\hag\AppData\Local\Temp/ccM7gxWE.s 			page 8


 368 02dc FB01      		movw r30,r22
 369 02de 6289      		ldd r22,Z+18
 370 02e0 70E0      		ldi r23,lo8(0)
 371 02e2 80E0      		ldi r24,lo8(0)
 372 02e4 90E0      		ldi r25,hi8(0)
 373 02e6 CB01      		movw r24,r22
 374 02e8 7727      		clr r23
 375 02ea 6627      		clr r22
 376 02ec 620F      		add r22,r18
 377 02ee 731F      		adc r23,r19
 378 02f0 841F      		adc r24,r20
 379 02f2 951F      		adc r25,r21
 380 02f4 6B83      		std Y+3,r22
 381 02f6 7C83      		std Y+4,r23
 382 02f8 8D83      		std Y+5,r24
 383 02fa 9E83      		std Y+6,r25
 384 02fc 0E94 0000 		call set_rtu_number
 385 0300 0E94 0000 		call NutNetSaveConfig
 386 0304 0E94 0000 		call PrintNetworkParam
 387 0308 00C0      		rjmp .L24
 388               	.L11:
 389 030a C501      		movw r24,r10
 390 030c 60E0      		ldi r22,lo8(.LC7)
 391 030e 70E0      		ldi r23,hi8(.LC7)
 392 0310 4DE1      		ldi r20,lo8(29)
 393 0312 50E0      		ldi r21,hi8(29)
 394 0314 0E94 0000 		call strncmp
 395 0318 0097      		sbiw r24,0
 396 031a 01F0      		breq .+2
 397 031c 00C0      		rjmp .L24
 398 031e D201      		movw r26,r4
 399 0320 E0E0      		ldi r30,lo8(confnet+10)
 400 0322 F0E0      		ldi r31,hi8(confnet+10)
 401               	.L15:
 402 0324 5B96      		adiw r26,27
 403 0326 9C91      		ld r25,X
 404 0328 5B97      		sbiw r26,27
 405 032a 8081      		ld r24,Z
 406 032c 9817      		cp r25,r24
 407 032e 01F4      		brne .L14
 408 0330 1196      		adiw r26,1
 409 0332 3196      		adiw r30,1
 410 0334 80E0      		ldi r24,hi8(confnet+16)
 411 0336 E030      		cpi r30,lo8(confnet+16)
 412 0338 F807      		cpc r31,r24
 413 033a 01F4      		brne .L15
 414               	.L14:
 415 033c 0E94 0000 		call charon_reset
 416 0340 00C0      		rjmp .L24
 417               		.size	UdpFind, .-UdpFind
 418               		.data
 419               	.LC8:
 420 00fd 2D2D 2043 		.string	"-- Client connected (IP address = %s, Port = %d)\r\n"
 420      6C69 656E 
 420      7420 636F 
 420      6E6E 6563 
 420      7465 6420 
GAS LISTING C:\Users\hag\AppData\Local\Temp/ccM7gxWE.s 			page 9


 421               	.LC9:
 422 0130 4861 7665 		.string	"Have eth0 NutTcpError(sockReflect) : %d\n\r"
 422      2065 7468 
 422      3020 4E75 
 422      7454 6370 
 422      4572 726F 
 423               	.LC10:
 424 015a 4861 7665 		.string	"Have UP\n\r"
 424      2055 500A 
 424      0D00 
 425               	.LC11:
 426 0164 4861 7665 		.string	"Have DOWN\n\r"
 426      2044 4F57 
 426      4E0A 0D00 
 427               	.LC12:
 428 0170 4861 7665 		.string	"Have Meas Command\n\r"
 428      204D 6561 
 428      7320 436F 
 428      6D6D 616E 
 428      640A 0D00 
 429               	.LC13:
 430 0184 4861 7665 		.string	"Have Meas Done Command\n\r"
 430      204D 6561 
 430      7320 446F 
 430      6E65 2043 
 430      6F6D 6D61 
 431               	.LC14:
 432 019d 4861 7665 		.string	"Have Test command\n\r"
 432      2054 6573 
 432      7420 636F 
 432      6D6D 616E 
 432      640A 0D00 
 433               	.LC15:
 434 01b1 4861 7665 		.string	"Have Send test %d byte answare\n\r"
 434      2053 656E 
 434      6420 7465 
 434      7374 2025 
 434      6420 6279 
 435               	.LC16:
 436 01d2 2D2D 2043 		.string	"-- Client disconnected (reflect)\r"
 436      6C69 656E 
 436      7420 6469 
 436      7363 6F6E 
 436      6E65 6374 
 437               		.section	.text.ReflectThread,"ax",@progbits
 438               	.global	ReflectThread
 439               		.type	ReflectThread, @function
 440               	ReflectThread:
 441 0000 DF93      		push r29
 442 0002 CF93      		push r28
 443 0004 00D0      		rcall .
 444 0006 00D0      		rcall .
 445 0008 CDB7      		in r28,__SP_L__
 446 000a DEB7      		in r29,__SP_H__
 447               	/* prologue: function */
 448               	/* frame size = 4 */
 449 000c 88EE      		ldi r24,lo8(1000)
GAS LISTING C:\Users\hag\AppData\Local\Temp/ccM7gxWE.s 			page 10


 450 000e 93E0      		ldi r25,hi8(1000)
 451 0010 A0E0      		ldi r26,hlo8(1000)
 452 0012 B0E0      		ldi r27,hhi8(1000)
 453 0014 8983      		std Y+1,r24
 454 0016 9A83      		std Y+2,r25
 455 0018 AB83      		std Y+3,r26
 456 001a BC83      		std Y+4,r27
 457 001c 1092 0000 		sts haveConnectReflect,__zero_reg__
 458 0020 AA24      		clr r10
 459 0022 A394      		inc r10
 460 0024 26E0      		ldi r18,lo8(6)
 461 0026 B22E      		mov r11,r18
 462 0028 90E0      		ldi r25,lo8(.LC12)
 463 002a 892E      		mov r8,r25
 464 002c 90E0      		ldi r25,hi8(.LC12)
 465 002e 992E      		mov r9,r25
 466 0030 80E0      		ldi r24,lo8(.LC11)
 467 0032 682E      		mov r6,r24
 468 0034 80E0      		ldi r24,hi8(.LC11)
 469 0036 782E      		mov r7,r24
 470 0038 00E0      		ldi r16,lo8(.LC10)
 471 003a 402E      		mov r4,r16
 472 003c 00E0      		ldi r16,hi8(.LC10)
 473 003e 502E      		mov r5,r16
 474 0040 10E0      		ldi r17,lo8(.LC9)
 475 0042 212E      		mov r2,r17
 476 0044 10E0      		ldi r17,hi8(.LC9)
 477 0046 312E      		mov r3,r17
 478               	.L48:
 479 0048 0E94 0000 		call NutTcpCreateSocket
 480 004c 9093 0000 		sts (sockReflect)+1,r25
 481 0050 8093 0000 		sts sockReflect,r24
 482 0054 6CED      		ldi r22,lo8(1500)
 483 0056 75E0      		ldi r23,hi8(1500)
 484 0058 0E94 0000 		call NutTcpAccept
 485 005c E091 0000 		lds r30,sockReflect
 486 0060 F091 0000 		lds r31,(sockReflect)+1
 487 0064 628D      		ldd r22,Z+26
 488 0066 738D      		ldd r23,Z+27
 489 0068 848D      		ldd r24,Z+28
 490 006a 958D      		ldd r25,Z+29
 491 006c 0E94 0000 		call inet_ntoa
 492 0070 00D0      		rcall .
 493 0072 00D0      		rcall .
 494 0074 00D0      		rcall .
 495 0076 EDB7      		in r30,__SP_L__
 496 0078 FEB7      		in r31,__SP_H__
 497 007a 3196      		adiw r30,1
 498 007c 20E0      		ldi r18,lo8(.LC8)
 499 007e 30E0      		ldi r19,hi8(.LC8)
 500 0080 ADB7      		in r26,__SP_L__
 501 0082 BEB7      		in r27,__SP_H__
 502 0084 1296      		adiw r26,1+1
 503 0086 3C93      		st X,r19
 504 0088 2E93      		st -X,r18
 505 008a 1197      		sbiw r26,1
 506 008c 9383      		std Z+3,r25
GAS LISTING C:\Users\hag\AppData\Local\Temp/ccM7gxWE.s 			page 11


 507 008e 8283      		std Z+2,r24
 508 0090 8CED      		ldi r24,lo8(1500)
 509 0092 95E0      		ldi r25,hi8(1500)
 510 0094 9583      		std Z+5,r25
 511 0096 8483      		std Z+4,r24
 512 0098 0E94 0000 		call printf
 513 009c 8DB7      		in r24,__SP_L__
 514 009e 9EB7      		in r25,__SP_H__
 515 00a0 0696      		adiw r24,6
 516 00a2 0FB6      		in __tmp_reg__,__SREG__
 517 00a4 F894      		cli
 518 00a6 9EBF      		out __SP_H__,r25
 519 00a8 0FBE      		out __SREG__,__tmp_reg__
 520 00aa 8DBF      		out __SP_L__,r24
 521 00ac 8091 0000 		lds r24,otdr_rs232_manual
 522 00b0 8823      		tst r24
 523 00b2 01F4      		brne .L27
 524 00b4 A092 0000 		sts haveConnectReflect,r10
 525 00b8 00C0      		rjmp .L28
 526               	.L27:
 527 00ba 1092 0000 		sts haveConnectReflect,__zero_reg__
 528               	.L28:
 529 00be 8091 0000 		lds r24,sockReflect
 530 00c2 9091 0000 		lds r25,(sockReflect)+1
 531 00c6 66E0      		ldi r22,lo8(4102)
 532 00c8 70E1      		ldi r23,hi8(4102)
 533 00ca AE01      		movw r20,r28
 534 00cc 4F5F      		subi r20,lo8(-(1))
 535 00ce 5F4F      		sbci r21,hi8(-(1))
 536 00d0 24E0      		ldi r18,lo8(4)
 537 00d2 30E0      		ldi r19,hi8(4)
 538 00d4 0E94 0000 		call NutTcpSetSockOpt
 539 00d8 84E1      		ldi r24,lo8(20)
 540 00da 90E0      		ldi r25,hi8(20)
 541 00dc 0E94 0000 		call malloc
 542 00e0 6C01      		movw r12,r24
 543 00e2 00C0      		rjmp .L55
 544               	.L44:
 545 00e4 8091 0000 		lds r24,sockReflect
 546 00e8 9091 0000 		lds r25,(sockReflect)+1
 547 00ec B601      		movw r22,r12
 548 00ee 44E1      		ldi r20,lo8(20)
 549 00f0 50E0      		ldi r21,hi8(20)
 550 00f2 0E94 0000 		call NutTcpReceive
 551 00f6 7C01      		movw r14,r24
 552 00f8 1816      		cp __zero_reg__,r24
 553 00fa 1906      		cpc __zero_reg__,r25
 554 00fc 04F0      		brlt .L30
 555 00fe 8091 0000 		lds r24,sockReflect
 556 0102 9091 0000 		lds r25,(sockReflect)+1
 557 0106 0E94 0000 		call NutTcpError
 558 010a 0097      		sbiw r24,0
 559 010c 01F0      		breq .L30
 560 010e 00D0      		rcall .
 561 0110 00D0      		rcall .
 562 0112 ADB7      		in r26,__SP_L__
 563 0114 BEB7      		in r27,__SP_H__
GAS LISTING C:\Users\hag\AppData\Local\Temp/ccM7gxWE.s 			page 12


 564 0116 1296      		adiw r26,1+1
 565 0118 3C92      		st X,r3
 566 011a 2E92      		st -X,r2
 567 011c 1197      		sbiw r26,1
 568 011e 1496      		adiw r26,3+1
 569 0120 9C93      		st X,r25
 570 0122 8E93      		st -X,r24
 571 0124 1397      		sbiw r26,3
 572 0126 0E94 0000 		call printf
 573 012a 0F90      		pop __tmp_reg__
 574 012c 0F90      		pop __tmp_reg__
 575 012e 0F90      		pop __tmp_reg__
 576 0130 0F90      		pop __tmp_reg__
 577 0132 00C0      		rjmp .L31
 578               	.L30:
 579 0134 8091 0000 		lds r24,haveConnectReflect
 580 0138 8823      		tst r24
 581 013a 01F4      		brne .+2
 582 013c 00C0      		rjmp .L55
 583 013e B6E0      		ldi r27,lo8(6)
 584 0140 EB16      		cp r14,r27
 585 0142 F104      		cpc r15,__zero_reg__
 586 0144 01F0      		breq .+2
 587 0146 00C0      		rjmp .L32
 588 0148 F601      		movw r30,r12
 589 014a 8081      		ld r24,Z
 590 014c 8131      		cpi r24,lo8(17)
 591 014e 01F4      		brne .L33
 592 0150 8181      		ldd r24,Z+1
 593 0152 8231      		cpi r24,lo8(18)
 594 0154 01F0      		breq .+2
 595 0156 00C0      		rjmp .L32
 596 0158 8281      		ldd r24,Z+2
 597 015a 8331      		cpi r24,lo8(19)
 598 015c 01F0      		breq .+2
 599 015e 00C0      		rjmp .L32
 600 0160 8381      		ldd r24,Z+3
 601 0162 8431      		cpi r24,lo8(20)
 602 0164 01F0      		breq .+2
 603 0166 00C0      		rjmp .L32
 604 0168 8481      		ldd r24,Z+4
 605 016a 8531      		cpi r24,lo8(21)
 606 016c 01F0      		breq .+2
 607 016e 00C0      		rjmp .L32
 608 0170 8581      		ldd r24,Z+5
 609 0172 8131      		cpi r24,lo8(17)
 610 0174 01F0      		breq .+2
 611 0176 00C0      		rjmp .L32
 612 0178 00D0      		rcall .
 613 017a ADB7      		in r26,__SP_L__
 614 017c BEB7      		in r27,__SP_H__
 615 017e 1296      		adiw r26,1+1
 616 0180 5C92      		st X,r5
 617 0182 4E92      		st -X,r4
 618 0184 1197      		sbiw r26,1
 619 0186 0E94 0000 		call printf
 620 018a F601      		movw r30,r12
GAS LISTING C:\Users\hag\AppData\Local\Temp/ccM7gxWE.s 			page 13


 621 018c B082      		st Z,r11
 622 018e 0F90      		pop __tmp_reg__
 623 0190 0F90      		pop __tmp_reg__
 624 0192 00C0      		rjmp .L58
 625               	.L33:
 626 0194 8031      		cpi r24,lo8(16)
 627 0196 01F4      		brne .L35
 628 0198 D601      		movw r26,r12
 629 019a 1196      		adiw r26,1
 630 019c 8C91      		ld r24,X
 631 019e 1197      		sbiw r26,1
 632 01a0 8930      		cpi r24,lo8(9)
 633 01a2 01F0      		breq .+2
 634 01a4 00C0      		rjmp .L32
 635 01a6 1296      		adiw r26,2
 636 01a8 8C91      		ld r24,X
 637 01aa 1297      		sbiw r26,2
 638 01ac 8830      		cpi r24,lo8(8)
 639 01ae 01F0      		breq .+2
 640 01b0 00C0      		rjmp .L32
 641 01b2 1396      		adiw r26,3
 642 01b4 8C91      		ld r24,X
 643 01b6 1397      		sbiw r26,3
 644 01b8 8730      		cpi r24,lo8(7)
 645 01ba 01F0      		breq .+2
 646 01bc 00C0      		rjmp .L32
 647 01be 1496      		adiw r26,4
 648 01c0 1C91      		ld r17,X
 649 01c2 1497      		sbiw r26,4
 650 01c4 1630      		cpi r17,lo8(6)
 651 01c6 01F0      		breq .+2
 652 01c8 00C0      		rjmp .L32
 653 01ca 1596      		adiw r26,5
 654 01cc 8C91      		ld r24,X
 655 01ce 8031      		cpi r24,lo8(16)
 656 01d0 01F0      		breq .+2
 657 01d2 00C0      		rjmp .L32
 658 01d4 00D0      		rcall .
 659 01d6 EDB7      		in r30,__SP_L__
 660 01d8 FEB7      		in r31,__SP_H__
 661 01da 7282      		std Z+2,r7
 662 01dc 6182      		std Z+1,r6
 663 01de 0E94 0000 		call printf
 664 01e2 0F90      		pop __tmp_reg__
 665 01e4 0F90      		pop __tmp_reg__
 666 01e6 0E94 0000 		call otdr_reset
 667 01ea 85E5      		ldi r24,lo8(85)
 668 01ec 0E94 0000 		call SPI_write_byte
 669 01f0 D601      		movw r26,r12
 670 01f2 1C93      		st X,r17
 671 01f4 00C0      		rjmp .L58
 672               	.L35:
 673 01f6 8931      		cpi r24,lo8(25)
 674 01f8 01F4      		brne .L37
 675 01fa F601      		movw r30,r12
 676 01fc 8181      		ldd r24,Z+1
 677 01fe 8831      		cpi r24,lo8(24)
GAS LISTING C:\Users\hag\AppData\Local\Temp/ccM7gxWE.s 			page 14


 678 0200 01F0      		breq .+2
 679 0202 00C0      		rjmp .L32
 680 0204 8281      		ldd r24,Z+2
 681 0206 8731      		cpi r24,lo8(23)
 682 0208 01F0      		breq .+2
 683 020a 00C0      		rjmp .L32
 684 020c 8381      		ldd r24,Z+3
 685 020e 8631      		cpi r24,lo8(22)
 686 0210 01F0      		breq .+2
 687 0212 00C0      		rjmp .L32
 688 0214 8481      		ldd r24,Z+4
 689 0216 8531      		cpi r24,lo8(21)
 690 0218 01F0      		breq .+2
 691 021a 00C0      		rjmp .L32
 692 021c 8581      		ldd r24,Z+5
 693 021e 8931      		cpi r24,lo8(25)
 694 0220 01F0      		breq .+2
 695 0222 00C0      		rjmp .L32
 696 0224 00D0      		rcall .
 697 0226 ADB7      		in r26,__SP_L__
 698 0228 BEB7      		in r27,__SP_H__
 699 022a 1296      		adiw r26,1+1
 700 022c 9C92      		st X,r9
 701 022e 8E92      		st -X,r8
 702 0230 1197      		sbiw r26,1
 703 0232 0E94 0000 		call printf
 704 0236 0F90      		pop __tmp_reg__
 705 0238 0F90      		pop __tmp_reg__
 706 023a 0E94 0000 		call disable_int_key
 707 023e 0E94 0000 		call disable_timer1
 708 0242 0E94 0000 		call otau_get_channel
 709 0246 682F      		mov r22,r24
 710 0248 82E0      		ldi r24,lo8(2)
 711 024a 70E0      		ldi r23,lo8(0)
 712 024c 40E0      		ldi r20,lo8(0)
 713 024e 50E0      		ldi r21,hi8(0)
 714 0250 20E0      		ldi r18,lo8(0)
 715 0252 30E0      		ldi r19,hi8(0)
 716 0254 EE24      		clr r14
 717 0256 FF24      		clr r15
 718 0258 8701      		movw r16,r14
 719 025a 0E94 0000 		call display_show
 720 025e F601      		movw r30,r12
 721 0260 00C0      		rjmp .L60
 722               	.L37:
 723 0262 8530      		cpi r24,lo8(5)
 724 0264 01F0      		breq .+2
 725 0266 00C0      		rjmp .L34
 726 0268 D601      		movw r26,r12
 727 026a 1196      		adiw r26,1
 728 026c 8C91      		ld r24,X
 729 026e 1197      		sbiw r26,1
 730 0270 8630      		cpi r24,lo8(6)
 731 0272 01F0      		breq .+2
 732 0274 00C0      		rjmp .L32
 733 0276 1296      		adiw r26,2
 734 0278 8C91      		ld r24,X
GAS LISTING C:\Users\hag\AppData\Local\Temp/ccM7gxWE.s 			page 15


 735 027a 1297      		sbiw r26,2
 736 027c 8730      		cpi r24,lo8(7)
 737 027e 01F0      		breq .+2
 738 0280 00C0      		rjmp .L32
 739 0282 1396      		adiw r26,3
 740 0284 8C91      		ld r24,X
 741 0286 1397      		sbiw r26,3
 742 0288 8830      		cpi r24,lo8(8)
 743 028a 01F0      		breq .+2
 744 028c 00C0      		rjmp .L32
 745 028e 1496      		adiw r26,4
 746 0290 8C91      		ld r24,X
 747 0292 1497      		sbiw r26,4
 748 0294 8930      		cpi r24,lo8(9)
 749 0296 01F0      		breq .+2
 750 0298 00C0      		rjmp .L32
 751 029a 1596      		adiw r26,5
 752 029c 8C91      		ld r24,X
 753 029e 8530      		cpi r24,lo8(5)
 754 02a0 01F0      		breq .+2
 755 02a2 00C0      		rjmp .L32
 756 02a4 00D0      		rcall .
 757 02a6 20E0      		ldi r18,lo8(.LC13)
 758 02a8 30E0      		ldi r19,hi8(.LC13)
 759 02aa EDB7      		in r30,__SP_L__
 760 02ac FEB7      		in r31,__SP_H__
 761 02ae 3283      		std Z+2,r19
 762 02b0 2183      		std Z+1,r18
 763 02b2 0E94 0000 		call printf
 764 02b6 0F90      		pop __tmp_reg__
 765 02b8 0F90      		pop __tmp_reg__
 766 02ba 8091 0000 		lds r24,pc_loaded
 767 02be 8823      		tst r24
 768 02c0 01F0      		breq .L39
 769 02c2 0E94 0000 		call get_rtu_number
 770 02c6 7B01      		movw r14,r22
 771 02c8 8C01      		movw r16,r24
 772 02ca 81E0      		ldi r24,lo8(1)
 773 02cc 00C0      		rjmp .L57
 774               	.L39:
 775 02ce 8091 0000 		lds r24,con_otdr
 776 02d2 8823      		tst r24
 777 02d4 01F0      		breq .L41
 778 02d6 0E94 0000 		call get_rtu_number
 779 02da 7B01      		movw r14,r22
 780 02dc 8C01      		movw r16,r24
 781 02de 88E0      		ldi r24,lo8(8)
 782               	.L57:
 783 02e0 60E0      		ldi r22,lo8(0)
 784 02e2 70E0      		ldi r23,hi8(0)
 785 02e4 40E0      		ldi r20,lo8(0)
 786 02e6 50E0      		ldi r21,hi8(0)
 787 02e8 20E0      		ldi r18,lo8(0)
 788 02ea 30E0      		ldi r19,hi8(0)
 789 02ec 0E94 0000 		call display_show
 790 02f0 00C0      		rjmp .L40
 791               	.L41:
GAS LISTING C:\Users\hag\AppData\Local\Temp/ccM7gxWE.s 			page 16


 792 02f2 8091 0000 		lds r24,win_loaded
 793 02f6 8823      		tst r24
 794 02f8 01F0      		breq .L42
 795 02fa 0E94 0000 		call get_rtu_number
 796 02fe 7B01      		movw r14,r22
 797 0300 8C01      		movw r16,r24
 798 0302 85E0      		ldi r24,lo8(5)
 799 0304 00C0      		rjmp .L57
 800               	.L42:
 801 0306 0E94 0000 		call get_rtu_number
 802 030a 7B01      		movw r14,r22
 803 030c 8C01      		movw r16,r24
 804 030e 80E0      		ldi r24,lo8(0)
 805 0310 60E0      		ldi r22,lo8(0)
 806 0312 70E0      		ldi r23,hi8(0)
 807 0314 40E0      		ldi r20,lo8(0)
 808 0316 50E0      		ldi r21,hi8(0)
 809 0318 20E0      		ldi r18,lo8(0)
 810 031a 30E0      		ldi r19,hi8(0)
 811 031c 0E94 0000 		call display_show
 812 0320 0E94 0000 		call enable_timer1
 813               	.L40:
 814 0324 D601      		movw r26,r12
 815 0326 BC92      		st X,r11
 816 0328 8091 0000 		lds r24,sockReflect
 817 032c 9091 0000 		lds r25,(sockReflect)+1
 818 0330 B601      		movw r22,r12
 819 0332 41E0      		ldi r20,lo8(1)
 820 0334 50E0      		ldi r21,hi8(1)
 821 0336 0E94 0000 		call NutTcpSend
 822 033a 0E94 0000 		call enable_int_key
 823 033e 00C0      		rjmp .L55
 824               	.L34:
 825 0340 8132      		cpi r24,lo8(33)
 826 0342 01F4      		brne .L36
 827 0344 F601      		movw r30,r12
 828 0346 8181      		ldd r24,Z+1
 829 0348 8232      		cpi r24,lo8(34)
 830 034a 01F0      		breq .+2
 831 034c 00C0      		rjmp .L32
 832 034e 8281      		ldd r24,Z+2
 833 0350 8332      		cpi r24,lo8(35)
 834 0352 01F0      		breq .+2
 835 0354 00C0      		rjmp .L32
 836 0356 8381      		ldd r24,Z+3
 837 0358 8432      		cpi r24,lo8(36)
 838 035a 01F0      		breq .+2
 839 035c 00C0      		rjmp .L32
 840 035e 8481      		ldd r24,Z+4
 841 0360 8532      		cpi r24,lo8(37)
 842 0362 01F0      		breq .+2
 843 0364 00C0      		rjmp .L32
 844 0366 8581      		ldd r24,Z+5
 845 0368 8132      		cpi r24,lo8(33)
 846 036a 01F0      		breq .+2
 847 036c 00C0      		rjmp .L32
 848               	.L60:
GAS LISTING C:\Users\hag\AppData\Local\Temp/ccM7gxWE.s 			page 17


 849 036e B082      		st Z,r11
 850 0370 00C0      		rjmp .L58
 851               	.L36:
 852 0372 8033      		cpi r24,lo8(48)
 853 0374 01F4      		brne .L38
 854 0376 D601      		movw r26,r12
 855 0378 1196      		adiw r26,1
 856 037a 8C91      		ld r24,X
 857 037c 1197      		sbiw r26,1
 858 037e 8932      		cpi r24,lo8(41)
 859 0380 01F0      		breq .+2
 860 0382 00C0      		rjmp .L32
 861 0384 1296      		adiw r26,2
 862 0386 8C91      		ld r24,X
 863 0388 1297      		sbiw r26,2
 864 038a 8832      		cpi r24,lo8(40)
 865 038c 01F0      		breq .+2
 866 038e 00C0      		rjmp .L32
 867 0390 1396      		adiw r26,3
 868 0392 8C91      		ld r24,X
 869 0394 1397      		sbiw r26,3
 870 0396 8732      		cpi r24,lo8(39)
 871 0398 01F0      		breq .+2
 872 039a 00C0      		rjmp .L32
 873 039c 1496      		adiw r26,4
 874 039e 8C91      		ld r24,X
 875 03a0 1497      		sbiw r26,4
 876 03a2 8632      		cpi r24,lo8(38)
 877 03a4 01F0      		breq .+2
 878 03a6 00C0      		rjmp .L32
 879 03a8 1596      		adiw r26,5
 880 03aa 8C91      		ld r24,X
 881 03ac 1597      		sbiw r26,5
 882 03ae 8033      		cpi r24,lo8(48)
 883 03b0 01F0      		breq .+2
 884 03b2 00C0      		rjmp .L32
 885 03b4 BC92      		st X,r11
 886               	.L58:
 887 03b6 8091 0000 		lds r24,sockReflect
 888 03ba 9091 0000 		lds r25,(sockReflect)+1
 889 03be B601      		movw r22,r12
 890 03c0 41E0      		ldi r20,lo8(1)
 891 03c2 50E0      		ldi r21,hi8(1)
 892 03c4 0E94 0000 		call NutTcpSend
 893 03c8 00C0      		rjmp .L55
 894               	.L38:
 895 03ca 8034      		cpi r24,lo8(64)
 896 03cc 01F0      		breq .+2
 897 03ce 00C0      		rjmp .L32
 898 03d0 F601      		movw r30,r12
 899 03d2 8181      		ldd r24,Z+1
 900 03d4 8933      		cpi r24,lo8(57)
 901 03d6 01F0      		breq .+2
 902 03d8 00C0      		rjmp .L32
 903 03da 8281      		ldd r24,Z+2
 904 03dc 8833      		cpi r24,lo8(56)
 905 03de 01F0      		breq .+2
GAS LISTING C:\Users\hag\AppData\Local\Temp/ccM7gxWE.s 			page 18


 906 03e0 00C0      		rjmp .L32
 907 03e2 8381      		ldd r24,Z+3
 908 03e4 8733      		cpi r24,lo8(55)
 909 03e6 01F0      		breq .+2
 910 03e8 00C0      		rjmp .L32
 911 03ea 8481      		ldd r24,Z+4
 912 03ec 8633      		cpi r24,lo8(54)
 913 03ee 01F0      		breq .+2
 914 03f0 00C0      		rjmp .L32
 915 03f2 8581      		ldd r24,Z+5
 916 03f4 8034      		cpi r24,lo8(64)
 917 03f6 01F4      		brne .L32
 918 03f8 00D0      		rcall .
 919 03fa E0E0      		ldi r30,lo8(.LC14)
 920 03fc F0E0      		ldi r31,hi8(.LC14)
 921 03fe ADB7      		in r26,__SP_L__
 922 0400 BEB7      		in r27,__SP_H__
 923 0402 1296      		adiw r26,1+1
 924 0404 FC93      		st X,r31
 925 0406 EE93      		st -X,r30
 926 0408 1197      		sbiw r26,1
 927 040a 0E94 0000 		call printf
 928 040e 00E0      		ldi r16,lo8(0)
 929 0410 10E0      		ldi r17,hi8(0)
 930 0412 0F90      		pop __tmp_reg__
 931 0414 0F90      		pop __tmp_reg__
 932               	.L43:
 933 0416 8091 0000 		lds r24,sockReflect
 934 041a 9091 0000 		lds r25,(sockReflect)+1
 935 041e B601      		movw r22,r12
 936 0420 44E1      		ldi r20,lo8(20)
 937 0422 50E0      		ldi r21,hi8(20)
 938 0424 0E94 0000 		call NutTcpSend
 939 0428 0F5F      		subi r16,lo8(-(1))
 940 042a 1F4F      		sbci r17,hi8(-(1))
 941 042c 093D      		cpi r16,217
 942 042e 1105      		cpc r17,__zero_reg__
 943 0430 01F4      		brne .L43
 944 0432 8091 0000 		lds r24,sockReflect
 945 0436 9091 0000 		lds r25,(sockReflect)+1
 946 043a B601      		movw r22,r12
 947 043c 43E0      		ldi r20,lo8(3)
 948 043e 50E0      		ldi r21,hi8(3)
 949 0440 0E94 0000 		call NutTcpSend
 950 0444 00D0      		rcall .
 951 0446 00D0      		rcall .
 952 0448 E0E0      		ldi r30,lo8(.LC15)
 953 044a F0E0      		ldi r31,hi8(.LC15)
 954 044c ADB7      		in r26,__SP_L__
 955 044e BEB7      		in r27,__SP_H__
 956 0450 1296      		adiw r26,1+1
 957 0452 FC93      		st X,r31
 958 0454 EE93      		st -X,r30
 959 0456 1197      		sbiw r26,1
 960 0458 24EF      		ldi r18,lo8(4340)
 961 045a 30E1      		ldi r19,hi8(4340)
 962 045c 1496      		adiw r26,3+1
GAS LISTING C:\Users\hag\AppData\Local\Temp/ccM7gxWE.s 			page 19


 963 045e 3C93      		st X,r19
 964 0460 2E93      		st -X,r18
 965 0462 1397      		sbiw r26,3
 966 0464 0E94 0000 		call printf
 967 0468 0F90      		pop __tmp_reg__
 968 046a 0F90      		pop __tmp_reg__
 969 046c 0F90      		pop __tmp_reg__
 970 046e 0F90      		pop __tmp_reg__
 971 0470 00C0      		rjmp .L55
 972               	.L32:
 973 0472 C601      		movw r24,r12
 974 0474 B701      		movw r22,r14
 975 0476 0E94 0000 		call SPI_write_buffer
 976               	.L55:
 977 047a 8091 0000 		lds r24,haveConnectReflect
 978 047e 8823      		tst r24
 979 0480 01F0      		breq .+2
 980 0482 00C0      		rjmp .L44
 981               	.L31:
 982 0484 1092 0000 		sts haveConnectReflect,__zero_reg__
 983 0488 C601      		movw r24,r12
 984 048a 0E94 0000 		call free
 985 048e 8091 0000 		lds r24,sockReflect
 986 0492 9091 0000 		lds r25,(sockReflect)+1
 987 0496 0E94 0000 		call NutTcpCloseSocket
 988 049a 80E0      		ldi r24,lo8(.LC16)
 989 049c 90E0      		ldi r25,hi8(.LC16)
 990 049e 0E94 0000 		call puts
 991 04a2 8091 0000 		lds r24,otdr_rs232_manual
 992 04a6 8823      		tst r24
 993 04a8 01F4      		brne .L45
 994 04aa 8091 0000 		lds r24,pc_loaded
 995 04ae 8823      		tst r24
 996 04b0 01F0      		breq .L46
 997 04b2 0E94 0000 		call get_rtu_number
 998 04b6 7B01      		movw r14,r22
 999 04b8 8C01      		movw r16,r24
 1000 04ba 81E0      		ldi r24,lo8(1)
 1001 04bc 00C0      		rjmp .L59
 1002               	.L46:
 1003 04be 8091 0000 		lds r24,con_otdr
 1004 04c2 8823      		tst r24
 1005 04c4 01F0      		breq .L47
 1006 04c6 0E94 0000 		call get_rtu_number
 1007 04ca 7B01      		movw r14,r22
 1008 04cc 8C01      		movw r16,r24
 1009 04ce 88E0      		ldi r24,lo8(8)
 1010 04d0 00C0      		rjmp .L59
 1011               	.L47:
 1012 04d2 8091 0000 		lds r24,win_loaded
 1013 04d6 8823      		tst r24
 1014 04d8 01F0      		breq .L45
 1015 04da 0E94 0000 		call get_rtu_number
 1016 04de 7B01      		movw r14,r22
 1017 04e0 8C01      		movw r16,r24
 1018 04e2 85E0      		ldi r24,lo8(5)
 1019               	.L59:
GAS LISTING C:\Users\hag\AppData\Local\Temp/ccM7gxWE.s 			page 20


 1020 04e4 60E0      		ldi r22,lo8(0)
 1021 04e6 70E0      		ldi r23,hi8(0)
 1022 04e8 40E0      		ldi r20,lo8(0)
 1023 04ea 50E0      		ldi r21,hi8(0)
 1024 04ec 20E0      		ldi r18,lo8(0)
 1025 04ee 30E0      		ldi r19,hi8(0)
 1026 04f0 0E94 0000 		call display_show
 1027               	.L45:
 1028 04f4 8091 0000 		lds r24,bad_work_enable
 1029 04f8 8823      		tst r24
 1030 04fa 01F4      		brne .+2
 1031 04fc 00C0      		rjmp .L48
 1032               	.L56:
 1033 04fe 00C0      		rjmp .L56
 1034               		.size	ReflectThread, .-ReflectThread
 1035               		.data
 1036               	.LC17:
 1037 01f4 722B 6200 		.string	"r+b"
 1038               	.LC18:
 1039 01f8 6F74 6175 		.string	"otau_reset\r\n"
 1039      5F72 6573 
 1039      6574 0D0A 
 1039      00
 1040               	.LC19:
 1041 0205 4F4B 0D0A 		.string	"OK\r\n"
 1041      00
 1042               	.LC20:
 1043 020a 4552 524F 		.string	"ERROR\r\n"
 1043      520D 0A00 
 1044               	.LC21:
 1045 0212 6F74 6175 		.string	"otau_get_channel\r\n"
 1045      5F67 6574 
 1045      5F63 6861 
 1045      6E6E 656C 
 1045      0D0A 00
 1046               	.LC22:
 1047 0225 2564 0D0A 		.string	"%d\r\n"
 1047      00
 1048               	.LC23:
 1049 022a 2D2D 2D20 		.string	"--- OTAU_GET_CHANNEL - %s\r\n"
 1049      4F54 4155 
 1049      5F47 4554 
 1049      5F43 4841 
 1049      4E4E 454C 
 1050               	.LC24:
 1051 0246 2D2D 2D20 		.string	"--- OTAU_GET_CHANNEL - ERROR Read OPTICAL SWITCH\r"
 1051      4F54 4155 
 1051      5F47 4554 
 1051      5F43 4841 
 1051      4E4E 454C 
 1052               	.LC25:
 1053 0278 6F74 6175 		.string	"otau_get_count_channels\r\n"
 1053      5F67 6574 
 1053      5F63 6F75 
 1053      6E74 5F63 
 1053      6861 6E6E 
 1054               	.LC26:
GAS LISTING C:\Users\hag\AppData\Local\Temp/ccM7gxWE.s 			page 21


 1055 0292 6F74 6175 		.string	"otau_set_channel %d\r\n"
 1055      5F73 6574 
 1055      5F63 6861 
 1055      6E6E 656C 
 1055      2025 640D 
 1056               	.LC27:
 1057 02a8 6F74 6175 		.string	"otau_set_channel%d\r\n"
 1057      5F73 6574 
 1057      5F63 6861 
 1057      6E6E 656C 
 1057      2564 0D0A 
 1058               	.LC28:
 1059 02bd 2D2D 2D20 		.string	"--- OTAU_SET_CHANNEL - %d\r\n"
 1059      4F54 4155 
 1059      5F53 4554 
 1059      5F43 4841 
 1059      4E4E 454C 
 1060               	.LC29:
 1061 02d9 2D2D 2D20 		.string	"--- OTAU_SET_CHANNEL - ERROR"
 1061      4F54 4155 
 1061      5F53 4554 
 1061      5F43 4841 
 1061      4E4E 454C 
 1062               	.LC30:
 1063 02f6 6F74 6175 		.string	"otau_check_alive\r\n"
 1063      5F63 6865 
 1063      636B 5F61 
 1063      6C69 7665 
 1063      0D0A 00
 1064               	.LC31:
 1065 0309 7063 5F72 		.string	"pc_reset\r\n"
 1065      6573 6574 
 1065      0D0A 00
 1066               	.LC32:
 1067 0314 6F74 6472 		.string	"otdr_reset_\r\n"
 1067      5F72 6573 
 1067      6574 5F0D 
 1067      0A00 
 1068               	.LC33:
 1069 0322 4255 5359 		.string	"BUSY\r\n"
 1069      0D0A 00
 1070               	.LC34:
 1071 0329 6F74 6472 		.string	"otdr_reset\r\n"
 1071      5F72 6573 
 1071      6574 0D0A 
 1071      00
 1072               	.LC35:
 1073 0336 6765 745F 		.string	"get_temperature\r\n"
 1073      7465 6D70 
 1073      6572 6174 
 1073      7572 650D 
 1073      0A00 
 1074               	.LC36:
 1075 0348 2563 2564 		.string	"%c%d.%d\r\n"
 1075      2E25 640D 
 1075      0A00 
 1076               	.LC37:
GAS LISTING C:\Users\hag\AppData\Local\Temp/ccM7gxWE.s 			page 22


 1077 0352 6861 7665 		.string	"have_ext_rs323_plugged\r\n"
 1077      5F65 7874 
 1077      5F72 7333 
 1077      3233 5F70 
 1077      6C75 6767 
 1078               	.LC38:
 1079 036b 5945 530D 		.string	"YES\r\n"
 1079      0A00 
 1080               	.LC39:
 1081 0371 4E4F 0D0A 		.string	"NO\r\n"
 1081      00
 1082               	.LC40:
 1083 0376 7063 5F6C 		.string	"pc_loaded\r\n"
 1083      6F61 6465 
 1083      640D 0A00 
 1084               	.LC41:
 1085 0382 616C 6172 		.string	"alarm_critical %d %s\r\n"
 1085      6D5F 6372 
 1085      6974 6963 
 1085      616C 2025 
 1085      6420 2573 
 1086               	.LC42:
 1087 0399 2564 2564 		.string	"%d%d%d\r\n"
 1087      2564 0D0A 
 1087      00
 1088               	.LC43:
 1089 03a2 616C 6172 		.string	"alarm %d %s\r\n"
 1089      6D20 2564 
 1089      2025 730D 
 1089      0A00 
 1090               	.LC44:
 1091 03b0 6765 745F 		.string	"get_rtu_number\r\n"
 1091      7274 755F 
 1091      6E75 6D62 
 1091      6572 0D0A 
 1091      00
 1092               	.LC45:
 1093 03c1 256C 750D 		.string	"%lu\r\n"
 1093      0A00 
 1094               	.LC46:
 1095 03c7 6672 6565 		.string	"free_otdr_port\r\n"
 1095      5F6F 7464 
 1095      725F 706F 
 1095      7274 0D0A 
 1095      00
 1096               	.LC47:
 1097 03d8 1313 1313 		.string	"\023\023\023\023\023\023"
 1097      1313 00
 1098               	.LC48:
 1099 03df 4578 6974 		.string	"Exit BOOT procedure\r"
 1099      2042 4F4F 
 1099      5420 7072 
 1099      6F63 6564 
 1099      7572 650D 
 1100               	.LC49:
 1101 03f4 6261 645F 		.string	"bad_work_enable\r\n"
 1101      776F 726B 
GAS LISTING C:\Users\hag\AppData\Local\Temp/ccM7gxWE.s 			page 23


 1101      5F65 6E61 
 1101      626C 650D 
 1101      0A00 
 1102               	.LC50:
 1103 0406 636F 6E74 		.string	"control_break\r\n"
 1103      726F 6C5F 
 1103      6272 6561 
 1103      6B0D 0A00 
 1104               	.LC51:
 1105 0416 6368 6172 		.string	"charon_reset\r\n"
 1105      6F6E 5F72 
 1105      6573 6574 
 1105      0D0A 00
 1106               	.LC52:
 1107 0425 6D65 6173 		.string	"meas\r\n"
 1107      0D0A 00
 1108               	.LC53:
 1109 042c 2D2D 2D20 		.string	"--- Have Meas Command on 23 port\n\r"
 1109      4861 7665 
 1109      204D 6561 
 1109      7320 436F 
 1109      6D6D 616E 
 1110               	.LC54:
 1111 044f 7374 6F70 		.string	"stop_meas\r\n"
 1111      5F6D 6561 
 1111      730D 0A00 
 1112               	.LC55:
 1113 045b 2D2D 2D20 		.string	"--- Have Meas Done Command on 23 Port\n\r"
 1113      4861 7665 
 1113      204D 6561 
 1113      7320 446F 
 1113      6E65 2043 
 1114               	.LC56:
 1115 0483 6969 5F73 		.string	"ii_set_power %d\r\n"
 1115      6574 5F70 
 1115      6F77 6572 
 1115      2025 640D 
 1115      0A00 
 1116               	.LC57:
 1117 0495 6969 5F73 		.string	"ii_set_power%d\r\n"
 1117      6574 5F70 
 1117      6F77 6572 
 1117      2564 0D0A 
 1117      00
 1118               	.LC58:
 1119 04a6 6163 5F73 		.string	"ac_set_power %d\r\n"
 1119      6574 5F70 
 1119      6F77 6572 
 1119      2025 640D 
 1119      0A00 
 1120               	.LC59:
 1121 04b8 6163 5F73 		.string	"ac_set_power%d\r\n"
 1121      6574 5F70 
 1121      6F77 6572 
 1121      2564 0D0A 
 1121      00
 1122               	.LC60:
GAS LISTING C:\Users\hag\AppData\Local\Temp/ccM7gxWE.s 			page 24


 1123 04c9 696E 695F 		.string	"ini_write\r\n"
 1123      7772 6974 
 1123      650D 0A00 
 1124               	.LC61:
 1125 04d5 696E 695F 		.string	"ini_read\r\n"
 1125      7265 6164 
 1125      0D0A 00
 1126               	.LC62:
 1127 04e0 4552 524F 		.string	"ERROR_COMMAND\r\n"
 1127      525F 434F 
 1127      4D4D 414E 
 1127      440D 0A00 
 1128               	.LC63:
 1129 04f0 2D2D 2043 		.string	"-- Client disconnected (telnet)\r"
 1129      6C69 656E 
 1129      7420 6469 
 1129      7363 6F6E 
 1129      6E65 6374 
 1130               		.section	.text.loopNetwork,"ax",@progbits
 1131               	.global	loopNetwork
 1132               		.type	loopNetwork, @function
 1133               	loopNetwork:
 1134 0000 2F92      		push r2
 1135 0002 3F92      		push r3
 1136 0004 4F92      		push r4
 1137 0006 5F92      		push r5
 1138 0008 6F92      		push r6
 1139 000a 7F92      		push r7
 1140 000c 8F92      		push r8
 1141 000e 9F92      		push r9
 1142 0010 AF92      		push r10
 1143 0012 BF92      		push r11
 1144 0014 CF92      		push r12
 1145 0016 DF92      		push r13
 1146 0018 EF92      		push r14
 1147 001a FF92      		push r15
 1148 001c 0F93      		push r16
 1149 001e 1F93      		push r17
 1150 0020 DF93      		push r29
 1151 0022 CF93      		push r28
 1152 0024 CDB7      		in r28,__SP_L__
 1153 0026 DEB7      		in r29,__SP_H__
 1154 0028 2F97      		sbiw r28,15
 1155 002a 0FB6      		in __tmp_reg__,__SREG__
 1156 002c F894      		cli
 1157 002e DEBF      		out __SP_H__,r29
 1158 0030 0FBE      		out __SREG__,__tmp_reg__
 1159 0032 CDBF      		out __SP_L__,r28
 1160               	/* prologue: function */
 1161               	/* frame size = 15 */
 1162 0034 1092 0000 		sts haveConnectTelnet,__zero_reg__
 1163 0038 70E0      		ldi r23,lo8(.LC8)
 1164 003a 272E      		mov r2,r23
 1165 003c 70E0      		ldi r23,hi8(.LC8)
 1166 003e 372E      		mov r3,r23
 1167 0040 60E0      		ldi r22,lo8(.LC42)
 1168 0042 662E      		mov r6,r22
GAS LISTING C:\Users\hag\AppData\Local\Temp/ccM7gxWE.s 			page 25


 1169 0044 60E0      		ldi r22,hi8(.LC42)
 1170 0046 762E      		mov r7,r22
 1171 0048 50E0      		ldi r21,lo8(.LC22)
 1172 004a 452E      		mov r4,r21
 1173 004c 50E0      		ldi r21,hi8(.LC22)
 1174 004e 552E      		mov r5,r21
 1175               	.L135:
 1176 0050 0E94 0000 		call NutTcpCreateSocket
 1177 0054 4C01      		movw r8,r24
 1178 0056 67E1      		ldi r22,lo8(23)
 1179 0058 70E0      		ldi r23,hi8(23)
 1180 005a 0E94 0000 		call NutTcpAccept
 1181 005e D401      		movw r26,r8
 1182 0060 5A96      		adiw r26,26
 1183 0062 6D91      		ld r22,X+
 1184 0064 7D91      		ld r23,X+
 1185 0066 8D91      		ld r24,X+
 1186 0068 9C91      		ld r25,X
 1187 006a 5D97      		sbiw r26,26+3
 1188 006c 0E94 0000 		call inet_ntoa
 1189 0070 00D0      		rcall .
 1190 0072 00D0      		rcall .
 1191 0074 00D0      		rcall .
 1192 0076 EDB7      		in r30,__SP_L__
 1193 0078 FEB7      		in r31,__SP_H__
 1194 007a 3196      		adiw r30,1
 1195 007c ADB7      		in r26,__SP_L__
 1196 007e BEB7      		in r27,__SP_H__
 1197 0080 1296      		adiw r26,1+1
 1198 0082 3C92      		st X,r3
 1199 0084 2E92      		st -X,r2
 1200 0086 1197      		sbiw r26,1
 1201 0088 9383      		std Z+3,r25
 1202 008a 8283      		std Z+2,r24
 1203 008c 87E1      		ldi r24,lo8(23)
 1204 008e 90E0      		ldi r25,hi8(23)
 1205 0090 9583      		std Z+5,r25
 1206 0092 8483      		std Z+4,r24
 1207 0094 0E94 0000 		call printf
 1208 0098 EDB7      		in r30,__SP_L__
 1209 009a FEB7      		in r31,__SP_H__
 1210 009c 3696      		adiw r30,6
 1211 009e 0FB6      		in __tmp_reg__,__SREG__
 1212 00a0 F894      		cli
 1213 00a2 FEBF      		out __SP_H__,r31
 1214 00a4 0FBE      		out __SREG__,__tmp_reg__
 1215 00a6 EDBF      		out __SP_L__,r30
 1216 00a8 C401      		movw r24,r8
 1217 00aa 60E0      		ldi r22,lo8(.LC17)
 1218 00ac 70E0      		ldi r23,hi8(.LC17)
 1219 00ae 0E94 0000 		call _fdopen
 1220 00b2 9093 0000 		sts (ethTelnetFile)+1,r25
 1221 00b6 8093 0000 		sts ethTelnetFile,r24
 1222 00ba 81E0      		ldi r24,lo8(1)
 1223 00bc 8093 0000 		sts haveConnectTelnet,r24
 1224 00c0 80E0      		ldi r24,lo8(512)
 1225 00c2 92E0      		ldi r25,hi8(512)
GAS LISTING C:\Users\hag\AppData\Local\Temp/ccM7gxWE.s 			page 26


 1226 00c4 0E94 0000 		call malloc
 1227 00c8 5C01      		movw r10,r24
 1228 00ca 00C0      		rjmp .L140
 1229               	.L134:
 1230 00cc 2091 0000 		lds r18,ethTelnetFile
 1231 00d0 3091 0000 		lds r19,(ethTelnetFile)+1
 1232 00d4 C501      		movw r24,r10
 1233 00d6 61E0      		ldi r22,lo8(1)
 1234 00d8 70E0      		ldi r23,hi8(1)
 1235 00da 40E0      		ldi r20,lo8(512)
 1236 00dc 52E0      		ldi r21,hi8(512)
 1237 00de 0E94 0000 		call fread
 1238 00e2 8C01      		movw r16,r24
 1239 00e4 6C01      		movw r12,r24
 1240 00e6 1816      		cp __zero_reg__,r24
 1241 00e8 1906      		cpc __zero_reg__,r25
 1242 00ea 04F0      		brlt .+2
 1243 00ec 00C0      		rjmp .L63
 1244 00ee F501      		movw r30,r10
 1245 00f0 E80F      		add r30,r24
 1246 00f2 F91F      		adc r31,r25
 1247 00f4 1082      		st Z,__zero_reg__
 1248 00f6 8091 0000 		lds r24,haveConnectTelnet
 1249 00fa 8823      		tst r24
 1250 00fc 01F4      		brne .+2
 1251 00fe 00C0      		rjmp .L140
 1252 0100 C501      		movw r24,r10
 1253 0102 60E0      		ldi r22,lo8(.LC18)
 1254 0104 70E0      		ldi r23,hi8(.LC18)
 1255 0106 0E94 0000 		call strcmp
 1256 010a 0097      		sbiw r24,0
 1257 010c 01F4      		brne .L64
 1258 010e 0E94 0000 		call otau_reset
 1259 0112 00C0      		rjmp .L158
 1260               	.L64:
 1261 0114 C501      		movw r24,r10
 1262 0116 60E0      		ldi r22,lo8(.LC21)
 1263 0118 70E0      		ldi r23,hi8(.LC21)
 1264 011a 0E94 0000 		call strcmp
 1265 011e 0097      		sbiw r24,0
 1266 0120 01F0      		breq .+2
 1267 0122 00C0      		rjmp .L67
 1268 0124 0E94 0000 		call otau_get_channel
 1269 0128 082F      		mov r16,r24
 1270 012a 10E0      		ldi r17,lo8(0)
 1271 012c 1B87      		std Y+11,r17
 1272 012e 0A87      		std Y+10,r16
 1273 0130 0E94 0000 		call otau_get_count_channels
 1274 0134 90E0      		ldi r25,lo8(0)
 1275 0136 8F77      		andi r24,lo8(-129)
 1276 0138 8017      		cp r24,r16
 1277 013a 9107      		cpc r25,r17
 1278 013c 04F0      		brlt .L68
 1279 013e 00D0      		rcall .
 1280 0140 00D0      		rcall .
 1281 0142 00D0      		rcall .
 1282 0144 EDB7      		in r30,__SP_L__
GAS LISTING C:\Users\hag\AppData\Local\Temp/ccM7gxWE.s 			page 27


 1283 0146 FEB7      		in r31,__SP_H__
 1284 0148 3196      		adiw r30,1
 1285 014a ADB7      		in r26,__SP_L__
 1286 014c BEB7      		in r27,__SP_H__
 1287 014e 1296      		adiw r26,1+1
 1288 0150 BC92      		st X,r11
 1289 0152 AE92      		st -X,r10
 1290 0154 1197      		sbiw r26,1
 1291 0156 5382      		std Z+3,r5
 1292 0158 4282      		std Z+2,r4
 1293 015a 8A85      		ldd r24,Y+10
 1294 015c 9B85      		ldd r25,Y+11
 1295 015e 9583      		std Z+5,r25
 1296 0160 8483      		std Z+4,r24
 1297 0162 0E94 0000 		call sprintf
 1298 0166 0F90      		pop __tmp_reg__
 1299 0168 0F90      		pop __tmp_reg__
 1300 016a 20E0      		ldi r18,lo8(.LC23)
 1301 016c 30E0      		ldi r19,hi8(.LC23)
 1302 016e EDB7      		in r30,__SP_L__
 1303 0170 FEB7      		in r31,__SP_H__
 1304 0172 3283      		std Z+2,r19
 1305 0174 2183      		std Z+1,r18
 1306 0176 B482      		std Z+4,r11
 1307 0178 A382      		std Z+3,r10
 1308 017a 0E94 0000 		call printf
 1309 017e D501      		movw r26,r10
 1310 0180 0D90      		ld __tmp_reg__,X+
 1311 0182 0020      		tst __tmp_reg__
 1312 0184 01F4      		brne .-6
 1313 0186 1197      		sbiw r26,1
 1314 0188 AA19      		sub r26,r10
 1315 018a BB09      		sbc r27,r11
 1316 018c 0F90      		pop __tmp_reg__
 1317 018e 0F90      		pop __tmp_reg__
 1318 0190 0F90      		pop __tmp_reg__
 1319 0192 0F90      		pop __tmp_reg__
 1320 0194 00C0      		rjmp .L150
 1321               	.L68:
 1322 0196 80E0      		ldi r24,lo8(.LC24)
 1323 0198 90E0      		ldi r25,hi8(.LC24)
 1324 019a 0E94 0000 		call puts
 1325 019e 00C0      		rjmp .L131
 1326               	.L67:
 1327 01a0 C501      		movw r24,r10
 1328 01a2 60E0      		ldi r22,lo8(.LC25)
 1329 01a4 70E0      		ldi r23,hi8(.LC25)
 1330 01a6 0E94 0000 		call strcmp
 1331 01aa 0097      		sbiw r24,0
 1332 01ac 01F4      		brne .L69
 1333 01ae 0E94 0000 		call otau_get_count_channels
 1334 01b2 90E0      		ldi r25,lo8(0)
 1335 01b4 8F77      		andi r24,lo8(-129)
 1336 01b6 9B87      		std Y+11,r25
 1337 01b8 8A87      		std Y+10,r24
 1338 01ba 0097      		sbiw r24,0
 1339 01bc 01F4      		brne .+2
GAS LISTING C:\Users\hag\AppData\Local\Temp/ccM7gxWE.s 			page 28


 1340 01be 00C0      		rjmp .L131
 1341 01c0 00D0      		rcall .
 1342 01c2 00D0      		rcall .
 1343 01c4 00D0      		rcall .
 1344 01c6 EDB7      		in r30,__SP_L__
 1345 01c8 FEB7      		in r31,__SP_H__
 1346 01ca 3196      		adiw r30,1
 1347 01cc ADB7      		in r26,__SP_L__
 1348 01ce BEB7      		in r27,__SP_H__
 1349 01d0 1296      		adiw r26,1+1
 1350 01d2 BC92      		st X,r11
 1351 01d4 AE92      		st -X,r10
 1352 01d6 1197      		sbiw r26,1
 1353 01d8 5382      		std Z+3,r5
 1354 01da 4282      		std Z+2,r4
 1355 01dc 9583      		std Z+5,r25
 1356 01de 8483      		std Z+4,r24
 1357 01e0 0E94 0000 		call sprintf
 1358 01e4 D501      		movw r26,r10
 1359 01e6 0D90      		ld __tmp_reg__,X+
 1360 01e8 0020      		tst __tmp_reg__
 1361 01ea 01F4      		brne .-6
 1362 01ec 1197      		sbiw r26,1
 1363 01ee AA19      		sub r26,r10
 1364 01f0 BB09      		sbc r27,r11
 1365 01f2 EDB7      		in r30,__SP_L__
 1366 01f4 FEB7      		in r31,__SP_H__
 1367 01f6 3696      		adiw r30,6
 1368 01f8 0FB6      		in __tmp_reg__,__SREG__
 1369 01fa F894      		cli
 1370 01fc FEBF      		out __SP_H__,r31
 1371 01fe 0FBE      		out __SREG__,__tmp_reg__
 1372 0200 EDBF      		out __SP_L__,r30
 1373               	.L150:
 1374 0202 2091 0000 		lds r18,ethTelnetFile
 1375 0206 3091 0000 		lds r19,(ethTelnetFile)+1
 1376 020a C501      		movw r24,r10
 1377 020c 61E0      		ldi r22,lo8(1)
 1378 020e 70E0      		ldi r23,hi8(1)
 1379 0210 AD01      		movw r20,r26
 1380 0212 00C0      		rjmp .L147
 1381               	.L69:
 1382 0214 C501      		movw r24,r10
 1383 0216 60E0      		ldi r22,lo8(.LC26)
 1384 0218 70E0      		ldi r23,hi8(.LC26)
 1385 021a 41E1      		ldi r20,lo8(17)
 1386 021c 50E0      		ldi r21,hi8(17)
 1387 021e 0E94 0000 		call strncmp
 1388 0222 0097      		sbiw r24,0
 1389 0224 01F0      		breq .+2
 1390 0226 00C0      		rjmp .L71
 1391 0228 00D0      		rcall .
 1392 022a 00D0      		rcall .
 1393 022c 00D0      		rcall .
 1394 022e EDB7      		in r30,__SP_L__
 1395 0230 FEB7      		in r31,__SP_H__
 1396 0232 3196      		adiw r30,1
GAS LISTING C:\Users\hag\AppData\Local\Temp/ccM7gxWE.s 			page 29


 1397 0234 ADB7      		in r26,__SP_L__
 1398 0236 BEB7      		in r27,__SP_H__
 1399 0238 1296      		adiw r26,1+1
 1400 023a BC92      		st X,r11
 1401 023c AE92      		st -X,r10
 1402 023e 1197      		sbiw r26,1
 1403 0240 20E0      		ldi r18,lo8(.LC27)
 1404 0242 30E0      		ldi r19,hi8(.LC27)
 1405 0244 3383      		std Z+3,r19
 1406 0246 2283      		std Z+2,r18
 1407 0248 CE01      		movw r24,r28
 1408 024a 0A96      		adiw r24,10
 1409 024c 9583      		std Z+5,r25
 1410 024e 8483      		std Z+4,r24
 1411 0250 0E94 0000 		call sscanf
 1412 0254 6DB7      		in r22,__SP_L__
 1413 0256 7EB7      		in r23,__SP_H__
 1414 0258 6A5F      		subi r22,lo8(-(6))
 1415 025a 7F4F      		sbci r23,hi8(-(6))
 1416 025c 0FB6      		in __tmp_reg__,__SREG__
 1417 025e F894      		cli
 1418 0260 7EBF      		out __SP_H__,r23
 1419 0262 0FBE      		out __SREG__,__tmp_reg__
 1420 0264 6DBF      		out __SP_L__,r22
 1421 0266 8A85      		ldd r24,Y+10
 1422 0268 0E94 0000 		call otau_set_channel
 1423 026c 8823      		tst r24
 1424 026e 01F0      		breq .L72
 1425 0270 00D0      		rcall .
 1426 0272 00D0      		rcall .
 1427 0274 E0E0      		ldi r30,lo8(.LC28)
 1428 0276 F0E0      		ldi r31,hi8(.LC28)
 1429 0278 ADB7      		in r26,__SP_L__
 1430 027a BEB7      		in r27,__SP_H__
 1431 027c 1296      		adiw r26,1+1
 1432 027e FC93      		st X,r31
 1433 0280 EE93      		st -X,r30
 1434 0282 1197      		sbiw r26,1
 1435 0284 8A85      		ldd r24,Y+10
 1436 0286 9B85      		ldd r25,Y+11
 1437 0288 1496      		adiw r26,3+1
 1438 028a 9C93      		st X,r25
 1439 028c 8E93      		st -X,r24
 1440 028e 1397      		sbiw r26,3
 1441 0290 0E94 0000 		call printf
 1442 0294 0F90      		pop __tmp_reg__
 1443 0296 0F90      		pop __tmp_reg__
 1444 0298 0F90      		pop __tmp_reg__
 1445 029a 0F90      		pop __tmp_reg__
 1446 029c 2091 0000 		lds r18,ethTelnetFile
 1447 02a0 3091 0000 		lds r19,(ethTelnetFile)+1
 1448 02a4 80E0      		ldi r24,lo8(.LC19)
 1449 02a6 90E0      		ldi r25,hi8(.LC19)
 1450 02a8 61E0      		ldi r22,lo8(1)
 1451 02aa 70E0      		ldi r23,hi8(1)
 1452 02ac 44E0      		ldi r20,lo8(4)
 1453 02ae 50E0      		ldi r21,hi8(4)
GAS LISTING C:\Users\hag\AppData\Local\Temp/ccM7gxWE.s 			page 30


 1454 02b0 0E94 0000 		call fwrite
 1455 02b4 8A85      		ldd r24,Y+10
 1456 02b6 9B85      		ldd r25,Y+11
 1457 02b8 0E94 0000 		call display_set_channel
 1458 02bc 00C0      		rjmp .L66
 1459               	.L72:
 1460 02be 00D0      		rcall .
 1461 02c0 E0E0      		ldi r30,lo8(.LC29)
 1462 02c2 F0E0      		ldi r31,hi8(.LC29)
 1463 02c4 ADB7      		in r26,__SP_L__
 1464 02c6 BEB7      		in r27,__SP_H__
 1465 02c8 1296      		adiw r26,1+1
 1466 02ca FC93      		st X,r31
 1467 02cc EE93      		st -X,r30
 1468 02ce 1197      		sbiw r26,1
 1469 02d0 0E94 0000 		call printf
 1470 02d4 0F90      		pop __tmp_reg__
 1471 02d6 0F90      		pop __tmp_reg__
 1472 02d8 00C0      		rjmp .L131
 1473               	.L71:
 1474 02da C501      		movw r24,r10
 1475 02dc 60E0      		ldi r22,lo8(.LC30)
 1476 02de 70E0      		ldi r23,hi8(.LC30)
 1477 02e0 0E94 0000 		call strcmp
 1478 02e4 0097      		sbiw r24,0
 1479 02e6 01F4      		brne .L73
 1480 02e8 0E94 0000 		call otau_check_alive
 1481 02ec 00C0      		rjmp .L158
 1482               	.L73:
 1483 02ee C501      		movw r24,r10
 1484 02f0 60E0      		ldi r22,lo8(.LC31)
 1485 02f2 70E0      		ldi r23,hi8(.LC31)
 1486 02f4 0E94 0000 		call strcmp
 1487 02f8 0097      		sbiw r24,0
 1488 02fa 01F4      		brne .L75
 1489 02fc 0E94 0000 		call reset_ext
 1490 0300 00C0      		rjmp .L154
 1491               	.L75:
 1492 0302 C501      		movw r24,r10
 1493 0304 60E0      		ldi r22,lo8(.LC32)
 1494 0306 70E0      		ldi r23,hi8(.LC32)
 1495 0308 0E94 0000 		call strcmp
 1496 030c 0097      		sbiw r24,0
 1497 030e 01F4      		brne .L76
 1498 0310 81E0      		ldi r24,lo8(1)
 1499 0312 8093 0000 		sts have_reset_command,r24
 1500 0316 8091 0000 		lds r24,otdr_rs232_manual
 1501 031a 8823      		tst r24
 1502 031c 01F0      		breq .+2
 1503 031e 00C0      		rjmp .L80
 1504 0320 1092 0000 		sts haveConnectReflect,__zero_reg__
 1505 0324 0E94 0000 		call otdr_reset
 1506 0328 2091 0000 		lds r18,ethTelnetFile
 1507 032c 3091 0000 		lds r19,(ethTelnetFile)+1
 1508 0330 00C0      		rjmp .L153
 1509               	.L76:
 1510 0332 C501      		movw r24,r10
GAS LISTING C:\Users\hag\AppData\Local\Temp/ccM7gxWE.s 			page 31


 1511 0334 60E0      		ldi r22,lo8(.LC34)
 1512 0336 70E0      		ldi r23,hi8(.LC34)
 1513 0338 0E94 0000 		call strcmp
 1514 033c 0097      		sbiw r24,0
 1515 033e 01F0      		breq .+2
 1516 0340 00C0      		rjmp .L79
 1517 0342 81E0      		ldi r24,lo8(1)
 1518 0344 8093 0000 		sts have_reset_command,r24
 1519 0348 8091 0000 		lds r24,otdr_rs232_manual
 1520 034c 8823      		tst r24
 1521 034e 01F0      		breq .+2
 1522 0350 00C0      		rjmp .L80
 1523 0352 1092 0000 		sts haveConnectReflect,__zero_reg__
 1524 0356 0E94 0000 		call otdr_reset
 1525 035a 85E5      		ldi r24,lo8(85)
 1526 035c 0E94 0000 		call SPI_write_byte
 1527 0360 80E8      		ldi r24,lo8(-128)
 1528 0362 0E94 0000 		call SPI_write_byte
 1529 0366 00E0      		ldi r16,lo8(0)
 1530 0368 10E0      		ldi r17,hi8(0)
 1531 036a 00C0      		rjmp .L81
 1532               	.L85:
 1533 036c 0F5F      		subi r16,lo8(-(1))
 1534 036e 1F4F      		sbci r17,hi8(-(1))
 1535               	.L81:
 1536 0370 0E94 0000 		call SPI_have_data
 1537 0374 8823      		tst r24
 1538 0376 01F0      		breq .L82
 1539 0378 0051      		subi r16,lo8(10000)
 1540 037a 1742      		sbci r17,hi8(10000)
 1541 037c 01F4      		brne .L141
 1542 037e 00C0      		rjmp .L89
 1543               	.L82:
 1544 0380 27E2      		ldi r18,hi8(10000)
 1545 0382 0031      		cpi r16,lo8(10000)
 1546 0384 1207      		cpc r17,r18
 1547 0386 01F4      		brne .L85
 1548 0388 00C0      		rjmp .L89
 1549               	.L141:
 1550 038a 0E94 0000 		call SPI_read_byte
 1551 038e 8A87      		std Y+10,r24
 1552 0390 1B86      		std Y+11,__zero_reg__
 1553 0392 88E0      		ldi r24,lo8(8)
 1554 0394 0E94 0000 		call SPI_write_byte
 1555 0398 00E0      		ldi r16,lo8(0)
 1556 039a 10E0      		ldi r17,hi8(0)
 1557 039c 00C0      		rjmp .L87
 1558               	.L91:
 1559 039e 0F5F      		subi r16,lo8(-(1))
 1560 03a0 1F4F      		sbci r17,hi8(-(1))
 1561               	.L87:
 1562 03a2 0E94 0000 		call SPI_have_data
 1563 03a6 8823      		tst r24
 1564 03a8 01F0      		breq .L88
 1565 03aa 0051      		subi r16,lo8(10000)
 1566 03ac 1742      		sbci r17,hi8(10000)
 1567 03ae 01F4      		brne .L142
GAS LISTING C:\Users\hag\AppData\Local\Temp/ccM7gxWE.s 			page 32


 1568 03b0 00C0      		rjmp .L89
 1569               	.L88:
 1570 03b2 67E2      		ldi r22,hi8(10000)
 1571 03b4 0031      		cpi r16,lo8(10000)
 1572 03b6 1607      		cpc r17,r22
 1573 03b8 01F4      		brne .L91
 1574               	.L89:
 1575 03ba 2091 0000 		lds r18,ethTelnetFile
 1576 03be 3091 0000 		lds r19,(ethTelnetFile)+1
 1577 03c2 00C0      		rjmp .L92
 1578               	.L142:
 1579 03c4 0E94 0000 		call SPI_read_byte
 1580 03c8 90E0      		ldi r25,lo8(0)
 1581 03ca 9B87      		std Y+11,r25
 1582 03cc 8A87      		std Y+10,r24
 1583 03ce 2091 0000 		lds r18,ethTelnetFile
 1584 03d2 3091 0000 		lds r19,(ethTelnetFile)+1
 1585 03d6 8836      		cpi r24,104
 1586 03d8 9105      		cpc r25,__zero_reg__
 1587 03da 01F4      		brne .L92
 1588               	.L153:
 1589 03dc 80E0      		ldi r24,lo8(.LC19)
 1590 03de 90E0      		ldi r25,hi8(.LC19)
 1591 03e0 61E0      		ldi r22,lo8(1)
 1592 03e2 70E0      		ldi r23,hi8(1)
 1593 03e4 44E0      		ldi r20,lo8(4)
 1594 03e6 50E0      		ldi r21,hi8(4)
 1595 03e8 00C0      		rjmp .L144
 1596               	.L92:
 1597 03ea 80E0      		ldi r24,lo8(.LC20)
 1598 03ec 90E0      		ldi r25,hi8(.LC20)
 1599 03ee 61E0      		ldi r22,lo8(1)
 1600 03f0 70E0      		ldi r23,hi8(1)
 1601 03f2 47E0      		ldi r20,lo8(7)
 1602 03f4 50E0      		ldi r21,hi8(7)
 1603 03f6 00C0      		rjmp .L144
 1604               	.L80:
 1605 03f8 2091 0000 		lds r18,ethTelnetFile
 1606 03fc 3091 0000 		lds r19,(ethTelnetFile)+1
 1607 0400 80E0      		ldi r24,lo8(.LC33)
 1608 0402 90E0      		ldi r25,hi8(.LC33)
 1609 0404 61E0      		ldi r22,lo8(1)
 1610 0406 70E0      		ldi r23,hi8(1)
 1611 0408 46E0      		ldi r20,lo8(6)
 1612 040a 50E0      		ldi r21,hi8(6)
 1613               	.L144:
 1614 040c 0E94 0000 		call fwrite
 1615 0410 1092 0000 		sts have_reset_command,__zero_reg__
 1616 0414 00C0      		rjmp .L66
 1617               	.L79:
 1618 0416 C501      		movw r24,r10
 1619 0418 60E0      		ldi r22,lo8(.LC35)
 1620 041a 70E0      		ldi r23,hi8(.LC35)
 1621 041c 0E94 0000 		call strcmp
 1622 0420 0097      		sbiw r24,0
 1623 0422 01F0      		breq .+2
 1624 0424 00C0      		rjmp .L93
GAS LISTING C:\Users\hag\AppData\Local\Temp/ccM7gxWE.s 			page 33


 1625 0426 0E94 0000 		call ds_convert_temperature_command
 1626 042a 80E6      		ldi r24,lo8(-5536)
 1627 042c 9AEE      		ldi r25,hi8(-5536)
 1628 042e FC01      		movw r30,r24
 1629               	/* #APP */
 1630               	 ;  105 "c:/winavr-20100110/lib/gcc/../../avr/include/util/delay_basic.h" 1
 1631 0430 3197      		1: sbiw r30,1
 1632 0432 01F4      		brne 1b
 1633               	 ;  0 "" 2
 1634               	/* #NOAPP */
 1635 0434 FC01      		movw r30,r24
 1636               	/* #APP */
 1637               	 ;  105 "c:/winavr-20100110/lib/gcc/../../avr/include/util/delay_basic.h" 1
 1638 0436 3197      		1: sbiw r30,1
 1639 0438 01F4      		brne 1b
 1640               	 ;  0 "" 2
 1641               	/* #NOAPP */
 1642 043a FC01      		movw r30,r24
 1643               	/* #APP */
 1644               	 ;  105 "c:/winavr-20100110/lib/gcc/../../avr/include/util/delay_basic.h" 1
 1645 043c 3197      		1: sbiw r30,1
 1646 043e 01F4      		brne 1b
 1647               	 ;  0 "" 2
 1648               	/* #NOAPP */
 1649 0440 FC01      		movw r30,r24
 1650               	/* #APP */
 1651               	 ;  105 "c:/winavr-20100110/lib/gcc/../../avr/include/util/delay_basic.h" 1
 1652 0442 3197      		1: sbiw r30,1
 1653 0444 01F4      		brne 1b
 1654               	 ;  0 "" 2
 1655               	/* #NOAPP */
 1656 0446 FC01      		movw r30,r24
 1657               	/* #APP */
 1658               	 ;  105 "c:/winavr-20100110/lib/gcc/../../avr/include/util/delay_basic.h" 1
 1659 0448 3197      		1: sbiw r30,1
 1660 044a 01F4      		brne 1b
 1661               	 ;  0 "" 2
 1662               	/* #NOAPP */
 1663 044c FC01      		movw r30,r24
 1664               	/* #APP */
 1665               	 ;  105 "c:/winavr-20100110/lib/gcc/../../avr/include/util/delay_basic.h" 1
 1666 044e 3197      		1: sbiw r30,1
 1667 0450 01F4      		brne 1b
 1668               	 ;  0 "" 2
 1669               	 ;  105 "c:/winavr-20100110/lib/gcc/../../avr/include/util/delay_basic.h" 1
 1670 0452 0197      		1: sbiw r24,1
 1671 0454 01F4      		brne 1b
 1672               	 ;  0 "" 2
 1673               	/* #NOAPP */
 1674 0456 CE01      		movw r24,r28
 1675 0458 0196      		adiw r24,1
 1676 045a BE01      		movw r22,r28
 1677 045c 6E5F      		subi r22,lo8(-(2))
 1678 045e 7F4F      		sbci r23,hi8(-(2))
 1679 0460 AE01      		movw r20,r28
 1680 0462 4D5F      		subi r20,lo8(-(3))
 1681 0464 5F4F      		sbci r21,hi8(-(3))
GAS LISTING C:\Users\hag\AppData\Local\Temp/ccM7gxWE.s 			page 34


 1682 0466 0E94 0000 		call ds_read_temperature_command
 1683 046a 8981      		ldd r24,Y+1
 1684 046c 8823      		tst r24
 1685 046e 01F4      		brne .L94
 1686 0470 2BE2      		ldi r18,lo8(43)
 1687 0472 30E0      		ldi r19,hi8(43)
 1688 0474 00C0      		rjmp .L95
 1689               	.L94:
 1690 0476 2DE2      		ldi r18,lo8(45)
 1691 0478 30E0      		ldi r19,hi8(45)
 1692               	.L95:
 1693 047a 4A81      		ldd r20,Y+2
 1694 047c 8B81      		ldd r24,Y+3
 1695 047e 8823      		tst r24
 1696 0480 01F4      		brne .L96
 1697 0482 85E0      		ldi r24,lo8(5)
 1698 0484 90E0      		ldi r25,hi8(5)
 1699 0486 00C0      		rjmp .L97
 1700               	.L96:
 1701 0488 80E0      		ldi r24,lo8(0)
 1702 048a 90E0      		ldi r25,hi8(0)
 1703               	.L97:
 1704 048c ADB7      		in r26,__SP_L__
 1705 048e BEB7      		in r27,__SP_H__
 1706 0490 1A97      		sbiw r26,10
 1707 0492 0FB6      		in __tmp_reg__,__SREG__
 1708 0494 F894      		cli
 1709 0496 BEBF      		out __SP_H__,r27
 1710 0498 0FBE      		out __SREG__,__tmp_reg__
 1711 049a ADBF      		out __SP_L__,r26
 1712 049c EDB7      		in r30,__SP_L__
 1713 049e FEB7      		in r31,__SP_H__
 1714 04a0 3196      		adiw r30,1
 1715 04a2 1296      		adiw r26,1+1
 1716 04a4 BC92      		st X,r11
 1717 04a6 AE92      		st -X,r10
 1718 04a8 1197      		sbiw r26,1
 1719 04aa 60E0      		ldi r22,lo8(.LC36)
 1720 04ac 70E0      		ldi r23,hi8(.LC36)
 1721 04ae 7383      		std Z+3,r23
 1722 04b0 6283      		std Z+2,r22
 1723 04b2 3583      		std Z+5,r19
 1724 04b4 2483      		std Z+4,r18
 1725 04b6 4683      		std Z+6,r20
 1726 04b8 1782      		std Z+7,__zero_reg__
 1727 04ba 9187      		std Z+9,r25
 1728 04bc 8087      		std Z+8,r24
 1729 04be 0E94 0000 		call sprintf
 1730 04c2 D501      		movw r26,r10
 1731 04c4 0D90      		ld __tmp_reg__,X+
 1732 04c6 0020      		tst __tmp_reg__
 1733 04c8 01F4      		brne .-6
 1734 04ca 1197      		sbiw r26,1
 1735 04cc AA19      		sub r26,r10
 1736 04ce BB09      		sbc r27,r11
 1737 04d0 8DB7      		in r24,__SP_L__
 1738 04d2 9EB7      		in r25,__SP_H__
GAS LISTING C:\Users\hag\AppData\Local\Temp/ccM7gxWE.s 			page 35


 1739 04d4 0A96      		adiw r24,10
 1740 04d6 0FB6      		in __tmp_reg__,__SREG__
 1741 04d8 F894      		cli
 1742 04da 9EBF      		out __SP_H__,r25
 1743 04dc 0FBE      		out __SREG__,__tmp_reg__
 1744 04de 8DBF      		out __SP_L__,r24
 1745 04e0 00C0      		rjmp .L150
 1746               	.L93:
 1747 04e2 C501      		movw r24,r10
 1748 04e4 60E0      		ldi r22,lo8(.LC37)
 1749 04e6 70E0      		ldi r23,hi8(.LC37)
 1750 04e8 0E94 0000 		call strcmp
 1751 04ec 0097      		sbiw r24,0
 1752 04ee 01F4      		brne .L98
 1753 04f0 8091 0000 		lds r24,otdr_rs232_manual
 1754 04f4 2091 0000 		lds r18,ethTelnetFile
 1755 04f8 3091 0000 		lds r19,(ethTelnetFile)+1
 1756 04fc 8823      		tst r24
 1757 04fe 01F0      		breq .L99
 1758 0500 80E0      		ldi r24,lo8(.LC38)
 1759 0502 90E0      		ldi r25,hi8(.LC38)
 1760 0504 61E0      		ldi r22,lo8(1)
 1761 0506 70E0      		ldi r23,hi8(1)
 1762 0508 45E0      		ldi r20,lo8(5)
 1763 050a 50E0      		ldi r21,hi8(5)
 1764 050c 00C0      		rjmp .L147
 1765               	.L99:
 1766 050e 80E0      		ldi r24,lo8(.LC39)
 1767 0510 90E0      		ldi r25,hi8(.LC39)
 1768 0512 00C0      		rjmp .L151
 1769               	.L98:
 1770 0514 C501      		movw r24,r10
 1771 0516 60E0      		ldi r22,lo8(.LC40)
 1772 0518 70E0      		ldi r23,hi8(.LC40)
 1773 051a 0E94 0000 		call strcmp
 1774 051e 0097      		sbiw r24,0
 1775 0520 01F4      		brne .L100
 1776 0522 81E0      		ldi r24,lo8(1)
 1777 0524 8093 0000 		sts pc_loaded,r24
 1778 0528 8091 0000 		lds r24,win_loaded
 1779 052c 8823      		tst r24
 1780 052e 01F4      		brne .L101
 1781 0530 0E94 0000 		call disable_timer1
 1782 0534 0E94 0000 		call stop_timer1
 1783 0538 80E0      		ldi r24,lo8(0)
 1784 053a 0E94 0000 		call set_start_time_min
 1785 053e 80E0      		ldi r24,lo8(0)
 1786 0540 0E94 0000 		call set_start_time_sec
 1787               	.L101:
 1788 0544 8091 0000 		lds r24,otdr_rs232_manual
 1789 0548 8823      		tst r24
 1790 054a 01F0      		breq .+2
 1791 054c 00C0      		rjmp .L154
 1792 054e 0E94 0000 		call otau_get_channel
 1793 0552 D82E      		mov r13,r24
 1794 0554 0E94 0000 		call get_rtu_number
 1795 0558 7B01      		movw r14,r22
GAS LISTING C:\Users\hag\AppData\Local\Temp/ccM7gxWE.s 			page 36


 1796 055a 8C01      		movw r16,r24
 1797 055c 81E0      		ldi r24,lo8(1)
 1798 055e 60E0      		ldi r22,lo8(0)
 1799 0560 70E0      		ldi r23,hi8(0)
 1800 0562 4D2D      		mov r20,r13
 1801 0564 50E0      		ldi r21,lo8(0)
 1802 0566 00C0      		rjmp .L161
 1803               	.L100:
 1804 0568 C501      		movw r24,r10
 1805 056a 60E0      		ldi r22,lo8(.LC41)
 1806 056c 70E0      		ldi r23,hi8(.LC41)
 1807 056e 4FE0      		ldi r20,lo8(15)
 1808 0570 50E0      		ldi r21,hi8(15)
 1809 0572 0E94 0000 		call strncmp
 1810 0576 0097      		sbiw r24,0
 1811 0578 01F0      		breq .+2
 1812 057a 00C0      		rjmp .L103
 1813 057c ADB7      		in r26,__SP_L__
 1814 057e BEB7      		in r27,__SP_H__
 1815 0580 1A97      		sbiw r26,10
 1816 0582 0FB6      		in __tmp_reg__,__SREG__
 1817 0584 F894      		cli
 1818 0586 BEBF      		out __SP_H__,r27
 1819 0588 0FBE      		out __SREG__,__tmp_reg__
 1820 058a ADBF      		out __SP_L__,r26
 1821 058c EDB7      		in r30,__SP_L__
 1822 058e FEB7      		in r31,__SP_H__
 1823 0590 3196      		adiw r30,1
 1824 0592 2FE0      		ldi r18,lo8(15)
 1825 0594 30E0      		ldi r19,hi8(15)
 1826 0596 A20E      		add r10,r18
 1827 0598 B31E      		adc r11,r19
 1828 059a 1296      		adiw r26,1+1
 1829 059c BC92      		st X,r11
 1830 059e AE92      		st -X,r10
 1831 05a0 1197      		sbiw r26,1
 1832 05a2 21EF      		ldi r18,lo8(-15)
 1833 05a4 3FEF      		ldi r19,hi8(-15)
 1834 05a6 A20E      		add r10,r18
 1835 05a8 B31E      		adc r11,r19
 1836 05aa 7382      		std Z+3,r7
 1837 05ac 6282      		std Z+2,r6
 1838 05ae CE01      		movw r24,r28
 1839 05b0 0896      		adiw r24,8
 1840 05b2 9583      		std Z+5,r25
 1841 05b4 8483      		std Z+4,r24
 1842 05b6 CE01      		movw r24,r28
 1843 05b8 0496      		adiw r24,4
 1844 05ba 9783      		std Z+7,r25
 1845 05bc 8683      		std Z+6,r24
 1846 05be CE01      		movw r24,r28
 1847 05c0 0696      		adiw r24,6
 1848 05c2 9187      		std Z+9,r25
 1849 05c4 8087      		std Z+8,r24
 1850 05c6 0E94 0000 		call sscanf
 1851 05ca 6DB7      		in r22,__SP_L__
 1852 05cc 7EB7      		in r23,__SP_H__
GAS LISTING C:\Users\hag\AppData\Local\Temp/ccM7gxWE.s 			page 37


 1853 05ce 665F      		subi r22,lo8(-(10))
 1854 05d0 7F4F      		sbci r23,hi8(-(10))
 1855 05d2 0FB6      		in __tmp_reg__,__SREG__
 1856 05d4 F894      		cli
 1857 05d6 7EBF      		out __SP_H__,r23
 1858 05d8 0FBE      		out __SREG__,__tmp_reg__
 1859 05da 6DBF      		out __SP_L__,r22
 1860 05dc 6885      		ldd r22,Y+8
 1861 05de 7985      		ldd r23,Y+9
 1862 05e0 4C81      		ldd r20,Y+4
 1863 05e2 5D81      		ldd r21,Y+5
 1864 05e4 2E81      		ldd r18,Y+6
 1865 05e6 3F81      		ldd r19,Y+7
 1866 05e8 83E0      		ldi r24,lo8(3)
 1867 05ea EE24      		clr r14
 1868 05ec FF24      		clr r15
 1869 05ee 8701      		movw r16,r14
 1870 05f0 0E94 0000 		call display_show
 1871 05f4 86E0      		ldi r24,lo8(6)
 1872 05f6 60E0      		ldi r22,lo8(0)
 1873 05f8 0E94 0000 		call display_set_cursor_pos
 1874 05fc 81E2      		ldi r24,lo8(33)
 1875 05fe 61E0      		ldi r22,lo8(1)
 1876 0600 0E94 0000 		call display_write_byte
 1877 0604 00C0      		rjmp .L154
 1878               	.L103:
 1879 0606 C501      		movw r24,r10
 1880 0608 60E0      		ldi r22,lo8(.LC43)
 1881 060a 70E0      		ldi r23,hi8(.LC43)
 1882 060c 46E0      		ldi r20,lo8(6)
 1883 060e 50E0      		ldi r21,hi8(6)
 1884 0610 0E94 0000 		call strncmp
 1885 0614 0097      		sbiw r24,0
 1886 0616 01F0      		breq .+2
 1887 0618 00C0      		rjmp .L104
 1888 061a 8DB7      		in r24,__SP_L__
 1889 061c 9EB7      		in r25,__SP_H__
 1890 061e 0A97      		sbiw r24,10
 1891 0620 0FB6      		in __tmp_reg__,__SREG__
 1892 0622 F894      		cli
 1893 0624 9EBF      		out __SP_H__,r25
 1894 0626 0FBE      		out __SREG__,__tmp_reg__
 1895 0628 8DBF      		out __SP_L__,r24
 1896 062a EDB7      		in r30,__SP_L__
 1897 062c FEB7      		in r31,__SP_H__
 1898 062e 3196      		adiw r30,1
 1899 0630 A6E0      		ldi r26,lo8(6)
 1900 0632 B0E0      		ldi r27,hi8(6)
 1901 0634 AA0E      		add r10,r26
 1902 0636 BB1E      		adc r11,r27
 1903 0638 ADB7      		in r26,__SP_L__
 1904 063a BEB7      		in r27,__SP_H__
 1905 063c 1296      		adiw r26,1+1
 1906 063e BC92      		st X,r11
 1907 0640 AE92      		st -X,r10
 1908 0642 1197      		sbiw r26,1
 1909 0644 2AEF      		ldi r18,lo8(-6)
GAS LISTING C:\Users\hag\AppData\Local\Temp/ccM7gxWE.s 			page 38


 1910 0646 3FEF      		ldi r19,hi8(-6)
 1911 0648 A20E      		add r10,r18
 1912 064a B31E      		adc r11,r19
 1913 064c 7382      		std Z+3,r7
 1914 064e 6282      		std Z+2,r6
 1915 0650 CE01      		movw r24,r28
 1916 0652 0896      		adiw r24,8
 1917 0654 9583      		std Z+5,r25
 1918 0656 8483      		std Z+4,r24
 1919 0658 CE01      		movw r24,r28
 1920 065a 0496      		adiw r24,4
 1921 065c 9783      		std Z+7,r25
 1922 065e 8683      		std Z+6,r24
 1923 0660 CE01      		movw r24,r28
 1924 0662 0696      		adiw r24,6
 1925 0664 9187      		std Z+9,r25
 1926 0666 8087      		std Z+8,r24
 1927 0668 0E94 0000 		call sscanf
 1928 066c 6DB7      		in r22,__SP_L__
 1929 066e 7EB7      		in r23,__SP_H__
 1930 0670 665F      		subi r22,lo8(-(10))
 1931 0672 7F4F      		sbci r23,hi8(-(10))
 1932 0674 0FB6      		in __tmp_reg__,__SREG__
 1933 0676 F894      		cli
 1934 0678 7EBF      		out __SP_H__,r23
 1935 067a 0FBE      		out __SREG__,__tmp_reg__
 1936 067c 6DBF      		out __SP_L__,r22
 1937 067e 6885      		ldd r22,Y+8
 1938 0680 7985      		ldd r23,Y+9
 1939 0682 4C81      		ldd r20,Y+4
 1940 0684 5D81      		ldd r21,Y+5
 1941 0686 2E81      		ldd r18,Y+6
 1942 0688 3F81      		ldd r19,Y+7
 1943 068a 83E0      		ldi r24,lo8(3)
 1944               	.L162:
 1945 068c EE24      		clr r14
 1946 068e FF24      		clr r15
 1947 0690 8701      		movw r16,r14
 1948               	.L160:
 1949 0692 0E94 0000 		call display_show
 1950 0696 00C0      		rjmp .L154
 1951               	.L104:
 1952 0698 C501      		movw r24,r10
 1953 069a 60E0      		ldi r22,lo8(.LC44)
 1954 069c 70E0      		ldi r23,hi8(.LC44)
 1955 069e 0E94 0000 		call strcmp
 1956 06a2 0097      		sbiw r24,0
 1957 06a4 01F4      		brne .L105
 1958 06a6 0E94 0000 		call get_rtu_number
 1959 06aa ADB7      		in r26,__SP_L__
 1960 06ac BEB7      		in r27,__SP_H__
 1961 06ae 1897      		sbiw r26,8
 1962 06b0 0FB6      		in __tmp_reg__,__SREG__
 1963 06b2 F894      		cli
 1964 06b4 BEBF      		out __SP_H__,r27
 1965 06b6 0FBE      		out __SREG__,__tmp_reg__
 1966 06b8 ADBF      		out __SP_L__,r26
GAS LISTING C:\Users\hag\AppData\Local\Temp/ccM7gxWE.s 			page 39


 1967 06ba EDB7      		in r30,__SP_L__
 1968 06bc FEB7      		in r31,__SP_H__
 1969 06be 3196      		adiw r30,1
 1970 06c0 1296      		adiw r26,1+1
 1971 06c2 BC92      		st X,r11
 1972 06c4 AE92      		st -X,r10
 1973 06c6 1197      		sbiw r26,1
 1974 06c8 20E0      		ldi r18,lo8(.LC45)
 1975 06ca 30E0      		ldi r19,hi8(.LC45)
 1976 06cc 3383      		std Z+3,r19
 1977 06ce 2283      		std Z+2,r18
 1978 06d0 6483      		std Z+4,r22
 1979 06d2 7583      		std Z+5,r23
 1980 06d4 8683      		std Z+6,r24
 1981 06d6 9783      		std Z+7,r25
 1982 06d8 0E94 0000 		call sprintf
 1983 06dc D501      		movw r26,r10
 1984 06de 0D90      		ld __tmp_reg__,X+
 1985 06e0 0020      		tst __tmp_reg__
 1986 06e2 01F4      		brne .-6
 1987 06e4 1197      		sbiw r26,1
 1988 06e6 AA19      		sub r26,r10
 1989 06e8 BB09      		sbc r27,r11
 1990 06ea 6DB7      		in r22,__SP_L__
 1991 06ec 7EB7      		in r23,__SP_H__
 1992 06ee 685F      		subi r22,lo8(-(8))
 1993 06f0 7F4F      		sbci r23,hi8(-(8))
 1994 06f2 0FB6      		in __tmp_reg__,__SREG__
 1995 06f4 F894      		cli
 1996 06f6 7EBF      		out __SP_H__,r23
 1997 06f8 0FBE      		out __SREG__,__tmp_reg__
 1998 06fa 6DBF      		out __SP_L__,r22
 1999 06fc 00C0      		rjmp .L150
 2000               	.L105:
 2001 06fe C501      		movw r24,r10
 2002 0700 60E0      		ldi r22,lo8(.LC46)
 2003 0702 70E0      		ldi r23,hi8(.LC46)
 2004 0704 0E94 0000 		call strcmp
 2005 0708 0097      		sbiw r24,0
 2006 070a 01F4      		brne .L106
 2007 070c 8091 0000 		lds r24,otdr_rs232_manual
 2008 0710 2091 0000 		lds r18,ethTelnetFile
 2009 0714 3091 0000 		lds r19,(ethTelnetFile)+1
 2010 0718 8823      		tst r24
 2011 071a 01F4      		brne .L110
 2012 071c 1092 0000 		sts haveConnectReflect,__zero_reg__
 2013 0720 00C0      		rjmp .L149
 2014               	.L106:
 2015 0722 C501      		movw r24,r10
 2016 0724 60E0      		ldi r22,lo8(.LC47)
 2017 0726 70E0      		ldi r23,hi8(.LC47)
 2018 0728 0E94 0000 		call strcmp
 2019 072c 0097      		sbiw r24,0
 2020 072e 01F4      		brne .L108
 2021 0730 80E0      		ldi r24,lo8(0)
 2022 0732 0E94 0000 		call set_start_time_min
 2023 0736 80E0      		ldi r24,lo8(0)
GAS LISTING C:\Users\hag\AppData\Local\Temp/ccM7gxWE.s 			page 40


 2024 0738 0E94 0000 		call set_start_time_sec
 2025 073c C501      		movw r24,r10
 2026 073e 0E94 0000 		call boot
 2027 0742 80E0      		ldi r24,lo8(.LC48)
 2028 0744 90E0      		ldi r25,hi8(.LC48)
 2029 0746 0E94 0000 		call puts
 2030 074a 00C0      		rjmp .L66
 2031               	.L108:
 2032 074c C501      		movw r24,r10
 2033 074e 60E0      		ldi r22,lo8(.LC49)
 2034 0750 70E0      		ldi r23,hi8(.LC49)
 2035 0752 0E94 0000 		call strcmp
 2036 0756 0097      		sbiw r24,0
 2037 0758 01F4      		brne .L109
 2038 075a 8091 0000 		lds r24,otdr_rs232_manual
 2039 075e 2091 0000 		lds r18,ethTelnetFile
 2040 0762 3091 0000 		lds r19,(ethTelnetFile)+1
 2041 0766 8823      		tst r24
 2042 0768 01F4      		brne .L110
 2043 076a 1092 0000 		sts haveConnectReflect,__zero_reg__
 2044 076e 81E0      		ldi r24,lo8(1)
 2045 0770 8093 0000 		sts bad_work_enable,r24
 2046 0774 00C0      		rjmp .L149
 2047               	.L110:
 2048 0776 80E0      		ldi r24,lo8(.LC33)
 2049 0778 90E0      		ldi r25,hi8(.LC33)
 2050 077a 61E0      		ldi r22,lo8(1)
 2051 077c 70E0      		ldi r23,hi8(1)
 2052 077e 46E0      		ldi r20,lo8(6)
 2053 0780 50E0      		ldi r21,hi8(6)
 2054 0782 00C0      		rjmp .L147
 2055               	.L109:
 2056 0784 C501      		movw r24,r10
 2057 0786 60E0      		ldi r22,lo8(.LC50)
 2058 0788 70E0      		ldi r23,hi8(.LC50)
 2059 078a 0E94 0000 		call strcmp
 2060 078e 0097      		sbiw r24,0
 2061 0790 01F4      		brne .L111
 2062 0792 8091 0000 		lds r24,otdr_rs232_manual
 2063 0796 8823      		tst r24
 2064 0798 01F4      		brne .+2
 2065 079a 00C0      		rjmp .L154
 2066 079c 1092 0000 		sts otdr_rs232_manual,__zero_reg__
 2067 07a0 8091 0000 		lds r24,pc_loaded
 2068 07a4 8823      		tst r24
 2069 07a6 01F0      		breq .L113
 2070 07a8 0E94 0000 		call get_rtu_number
 2071 07ac 7B01      		movw r14,r22
 2072 07ae 8C01      		movw r16,r24
 2073 07b0 81E0      		ldi r24,lo8(1)
 2074 07b2 00C0      		rjmp .L145
 2075               	.L113:
 2076 07b4 8091 0000 		lds r24,con_otdr
 2077 07b8 8823      		tst r24
 2078 07ba 01F0      		breq .L114
 2079 07bc 0E94 0000 		call get_rtu_number
 2080 07c0 7B01      		movw r14,r22
GAS LISTING C:\Users\hag\AppData\Local\Temp/ccM7gxWE.s 			page 41


 2081 07c2 8C01      		movw r16,r24
 2082 07c4 88E0      		ldi r24,lo8(8)
 2083               	.L145:
 2084 07c6 60E0      		ldi r22,lo8(0)
 2085 07c8 70E0      		ldi r23,hi8(0)
 2086 07ca 40E0      		ldi r20,lo8(0)
 2087 07cc 50E0      		ldi r21,hi8(0)
 2088               	.L161:
 2089 07ce 20E0      		ldi r18,lo8(0)
 2090 07d0 30E0      		ldi r19,hi8(0)
 2091 07d2 00C0      		rjmp .L160
 2092               	.L114:
 2093 07d4 8091 0000 		lds r24,win_loaded
 2094 07d8 8823      		tst r24
 2095 07da 01F0      		breq .L115
 2096 07dc 0E94 0000 		call get_rtu_number
 2097 07e0 7B01      		movw r14,r22
 2098 07e2 8C01      		movw r16,r24
 2099 07e4 85E0      		ldi r24,lo8(5)
 2100 07e6 00C0      		rjmp .L145
 2101               	.L115:
 2102 07e8 0E94 0000 		call get_rtu_number
 2103 07ec 7B01      		movw r14,r22
 2104 07ee 8C01      		movw r16,r24
 2105 07f0 80E0      		ldi r24,lo8(0)
 2106 07f2 60E0      		ldi r22,lo8(0)
 2107 07f4 70E0      		ldi r23,hi8(0)
 2108 07f6 40E0      		ldi r20,lo8(0)
 2109 07f8 50E0      		ldi r21,hi8(0)
 2110 07fa 20E0      		ldi r18,lo8(0)
 2111 07fc 30E0      		ldi r19,hi8(0)
 2112 07fe 0E94 0000 		call display_show
 2113 0802 0E94 0000 		call enable_timer1
 2114 0806 00C0      		rjmp .L154
 2115               	.L111:
 2116 0808 C501      		movw r24,r10
 2117 080a 60E0      		ldi r22,lo8(.LC51)
 2118 080c 70E0      		ldi r23,hi8(.LC51)
 2119 080e 0E94 0000 		call strcmp
 2120 0812 0097      		sbiw r24,0
 2121 0814 01F4      		brne .L116
 2122 0816 2091 0000 		lds r18,ethTelnetFile
 2123 081a 3091 0000 		lds r19,(ethTelnetFile)+1
 2124 081e 80E0      		ldi r24,lo8(.LC19)
 2125 0820 90E0      		ldi r25,hi8(.LC19)
 2126 0822 61E0      		ldi r22,lo8(1)
 2127 0824 70E0      		ldi r23,hi8(1)
 2128 0826 44E0      		ldi r20,lo8(4)
 2129 0828 50E0      		ldi r21,hi8(4)
 2130 082a 0E94 0000 		call fwrite
 2131 082e 0E94 0000 		call charon_reset
 2132 0832 00C0      		rjmp .L66
 2133               	.L116:
 2134 0834 C501      		movw r24,r10
 2135 0836 60E0      		ldi r22,lo8(.LC52)
 2136 0838 70E0      		ldi r23,hi8(.LC52)
 2137 083a 0E94 0000 		call strcmp
GAS LISTING C:\Users\hag\AppData\Local\Temp/ccM7gxWE.s 			page 42


 2138 083e 0097      		sbiw r24,0
 2139 0840 01F4      		brne .L117
 2140 0842 00D0      		rcall .
 2141 0844 E0E0      		ldi r30,lo8(.LC53)
 2142 0846 F0E0      		ldi r31,hi8(.LC53)
 2143 0848 ADB7      		in r26,__SP_L__
 2144 084a BEB7      		in r27,__SP_H__
 2145 084c 1296      		adiw r26,1+1
 2146 084e FC93      		st X,r31
 2147 0850 EE93      		st -X,r30
 2148 0852 1197      		sbiw r26,1
 2149 0854 0E94 0000 		call printf
 2150 0858 0F90      		pop __tmp_reg__
 2151 085a 0F90      		pop __tmp_reg__
 2152 085c 0E94 0000 		call disable_int_key
 2153 0860 0E94 0000 		call disable_timer1
 2154 0864 0E94 0000 		call otau_get_channel
 2155 0868 682F      		mov r22,r24
 2156 086a 82E0      		ldi r24,lo8(2)
 2157 086c 70E0      		ldi r23,lo8(0)
 2158 086e 40E0      		ldi r20,lo8(0)
 2159 0870 50E0      		ldi r21,hi8(0)
 2160 0872 20E0      		ldi r18,lo8(0)
 2161 0874 30E0      		ldi r19,hi8(0)
 2162 0876 00C0      		rjmp .L162
 2163               	.L117:
 2164 0878 C501      		movw r24,r10
 2165 087a 60E0      		ldi r22,lo8(.LC54)
 2166 087c 70E0      		ldi r23,hi8(.LC54)
 2167 087e 0E94 0000 		call strcmp
 2168 0882 0097      		sbiw r24,0
 2169 0884 01F0      		breq .+2
 2170 0886 00C0      		rjmp .L118
 2171 0888 00D0      		rcall .
 2172 088a E0E0      		ldi r30,lo8(.LC55)
 2173 088c F0E0      		ldi r31,hi8(.LC55)
 2174 088e ADB7      		in r26,__SP_L__
 2175 0890 BEB7      		in r27,__SP_H__
 2176 0892 1296      		adiw r26,1+1
 2177 0894 FC93      		st X,r31
 2178 0896 EE93      		st -X,r30
 2179 0898 1197      		sbiw r26,1
 2180 089a 0E94 0000 		call printf
 2181 089e 0F90      		pop __tmp_reg__
 2182 08a0 0F90      		pop __tmp_reg__
 2183 08a2 8091 0000 		lds r24,pc_loaded
 2184 08a6 8823      		tst r24
 2185 08a8 01F0      		breq .L119
 2186 08aa 0E94 0000 		call get_rtu_number
 2187 08ae 7B01      		movw r14,r22
 2188 08b0 8C01      		movw r16,r24
 2189 08b2 81E0      		ldi r24,lo8(1)
 2190 08b4 00C0      		rjmp .L146
 2191               	.L119:
 2192 08b6 8091 0000 		lds r24,con_otdr
 2193 08ba 8823      		tst r24
 2194 08bc 01F0      		breq .L121
GAS LISTING C:\Users\hag\AppData\Local\Temp/ccM7gxWE.s 			page 43


 2195 08be 0E94 0000 		call get_rtu_number
 2196 08c2 7B01      		movw r14,r22
 2197 08c4 8C01      		movw r16,r24
 2198 08c6 88E0      		ldi r24,lo8(8)
 2199               	.L146:
 2200 08c8 60E0      		ldi r22,lo8(0)
 2201 08ca 70E0      		ldi r23,hi8(0)
 2202 08cc 40E0      		ldi r20,lo8(0)
 2203 08ce 50E0      		ldi r21,hi8(0)
 2204 08d0 20E0      		ldi r18,lo8(0)
 2205 08d2 30E0      		ldi r19,hi8(0)
 2206 08d4 0E94 0000 		call display_show
 2207 08d8 00C0      		rjmp .L120
 2208               	.L121:
 2209 08da 8091 0000 		lds r24,win_loaded
 2210 08de 8823      		tst r24
 2211 08e0 01F0      		breq .L122
 2212 08e2 0E94 0000 		call get_rtu_number
 2213 08e6 7B01      		movw r14,r22
 2214 08e8 8C01      		movw r16,r24
 2215 08ea 85E0      		ldi r24,lo8(5)
 2216 08ec 00C0      		rjmp .L146
 2217               	.L122:
 2218 08ee 0E94 0000 		call get_rtu_number
 2219 08f2 7B01      		movw r14,r22
 2220 08f4 8C01      		movw r16,r24
 2221 08f6 80E0      		ldi r24,lo8(0)
 2222 08f8 60E0      		ldi r22,lo8(0)
 2223 08fa 70E0      		ldi r23,hi8(0)
 2224 08fc 40E0      		ldi r20,lo8(0)
 2225 08fe 50E0      		ldi r21,hi8(0)
 2226 0900 20E0      		ldi r18,lo8(0)
 2227 0902 30E0      		ldi r19,hi8(0)
 2228 0904 0E94 0000 		call display_show
 2229 0908 0E94 0000 		call enable_timer1
 2230               	.L120:
 2231 090c 0E94 0000 		call enable_int_key
 2232               	.L154:
 2233 0910 2091 0000 		lds r18,ethTelnetFile
 2234 0914 3091 0000 		lds r19,(ethTelnetFile)+1
 2235               	.L149:
 2236 0918 80E0      		ldi r24,lo8(.LC19)
 2237 091a 90E0      		ldi r25,hi8(.LC19)
 2238               	.L151:
 2239 091c 61E0      		ldi r22,lo8(1)
 2240 091e 70E0      		ldi r23,hi8(1)
 2241 0920 44E0      		ldi r20,lo8(4)
 2242 0922 50E0      		ldi r21,hi8(4)
 2243 0924 00C0      		rjmp .L147
 2244               	.L118:
 2245 0926 C501      		movw r24,r10
 2246 0928 60E0      		ldi r22,lo8(.LC56)
 2247 092a 70E0      		ldi r23,hi8(.LC56)
 2248 092c 4DE0      		ldi r20,lo8(13)
 2249 092e 50E0      		ldi r21,hi8(13)
 2250 0930 0E94 0000 		call strncmp
 2251 0934 0097      		sbiw r24,0
GAS LISTING C:\Users\hag\AppData\Local\Temp/ccM7gxWE.s 			page 44


 2252 0936 01F4      		brne .L123
 2253 0938 00D0      		rcall .
 2254 093a 00D0      		rcall .
 2255 093c 00D0      		rcall .
 2256 093e EDB7      		in r30,__SP_L__
 2257 0940 FEB7      		in r31,__SP_H__
 2258 0942 3196      		adiw r30,1
 2259 0944 ADB7      		in r26,__SP_L__
 2260 0946 BEB7      		in r27,__SP_H__
 2261 0948 1296      		adiw r26,1+1
 2262 094a BC92      		st X,r11
 2263 094c AE92      		st -X,r10
 2264 094e 1197      		sbiw r26,1
 2265 0950 20E0      		ldi r18,lo8(.LC57)
 2266 0952 30E0      		ldi r19,hi8(.LC57)
 2267 0954 3383      		std Z+3,r19
 2268 0956 2283      		std Z+2,r18
 2269 0958 CE01      		movw r24,r28
 2270 095a 0A96      		adiw r24,10
 2271 095c 9583      		std Z+5,r25
 2272 095e 8483      		std Z+4,r24
 2273 0960 0E94 0000 		call sscanf
 2274 0964 6DB7      		in r22,__SP_L__
 2275 0966 7EB7      		in r23,__SP_H__
 2276 0968 6A5F      		subi r22,lo8(-(6))
 2277 096a 7F4F      		sbci r23,hi8(-(6))
 2278 096c 0FB6      		in __tmp_reg__,__SREG__
 2279 096e F894      		cli
 2280 0970 7EBF      		out __SP_H__,r23
 2281 0972 0FBE      		out __SREG__,__tmp_reg__
 2282 0974 6DBF      		out __SP_L__,r22
 2283 0976 8A85      		ldd r24,Y+10
 2284 0978 9B85      		ldd r25,Y+11
 2285 097a 0E94 0000 		call set_power_ii
 2286 097e 00C0      		rjmp .L158
 2287               	.L123:
 2288 0980 C501      		movw r24,r10
 2289 0982 60E0      		ldi r22,lo8(.LC58)
 2290 0984 70E0      		ldi r23,hi8(.LC58)
 2291 0986 4DE0      		ldi r20,lo8(13)
 2292 0988 50E0      		ldi r21,hi8(13)
 2293 098a 0E94 0000 		call strncmp
 2294 098e 0097      		sbiw r24,0
 2295 0990 01F4      		brne .L125
 2296 0992 00D0      		rcall .
 2297 0994 00D0      		rcall .
 2298 0996 00D0      		rcall .
 2299 0998 EDB7      		in r30,__SP_L__
 2300 099a FEB7      		in r31,__SP_H__
 2301 099c 3196      		adiw r30,1
 2302 099e ADB7      		in r26,__SP_L__
 2303 09a0 BEB7      		in r27,__SP_H__
 2304 09a2 1296      		adiw r26,1+1
 2305 09a4 BC92      		st X,r11
 2306 09a6 AE92      		st -X,r10
 2307 09a8 1197      		sbiw r26,1
 2308 09aa 20E0      		ldi r18,lo8(.LC59)
GAS LISTING C:\Users\hag\AppData\Local\Temp/ccM7gxWE.s 			page 45


 2309 09ac 30E0      		ldi r19,hi8(.LC59)
 2310 09ae 3383      		std Z+3,r19
 2311 09b0 2283      		std Z+2,r18
 2312 09b2 CE01      		movw r24,r28
 2313 09b4 0A96      		adiw r24,10
 2314 09b6 9583      		std Z+5,r25
 2315 09b8 8483      		std Z+4,r24
 2316 09ba 0E94 0000 		call sscanf
 2317 09be 6DB7      		in r22,__SP_L__
 2318 09c0 7EB7      		in r23,__SP_H__
 2319 09c2 6A5F      		subi r22,lo8(-(6))
 2320 09c4 7F4F      		sbci r23,hi8(-(6))
 2321 09c6 0FB6      		in __tmp_reg__,__SREG__
 2322 09c8 F894      		cli
 2323 09ca 7EBF      		out __SP_H__,r23
 2324 09cc 0FBE      		out __SREG__,__tmp_reg__
 2325 09ce 6DBF      		out __SP_L__,r22
 2326 09d0 8A85      		ldd r24,Y+10
 2327 09d2 9B85      		ldd r25,Y+11
 2328 09d4 0E94 0000 		call set_power_ac
 2329               	.L158:
 2330 09d8 2091 0000 		lds r18,ethTelnetFile
 2331 09dc 3091 0000 		lds r19,(ethTelnetFile)+1
 2332 09e0 8823      		tst r24
 2333 09e2 01F4      		brne .+2
 2334 09e4 00C0      		rjmp .L152
 2335 09e6 00C0      		rjmp .L149
 2336               	.L125:
 2337 09e8 C501      		movw r24,r10
 2338 09ea 60E0      		ldi r22,lo8(.LC60)
 2339 09ec 70E0      		ldi r23,hi8(.LC60)
 2340 09ee 4BE0      		ldi r20,lo8(11)
 2341 09f0 50E0      		ldi r21,hi8(11)
 2342 09f2 0E94 0000 		call strncmp
 2343 09f6 0097      		sbiw r24,0
 2344 09f8 01F0      		breq .+2
 2345 09fa 00C0      		rjmp .L127
 2346 09fc C401      		movw r24,r8
 2347 09fe 60E0      		ldi r22,lo8(.LC19)
 2348 0a00 70E0      		ldi r23,hi8(.LC19)
 2349 0a02 44E0      		ldi r20,lo8(4)
 2350 0a04 50E0      		ldi r21,hi8(4)
 2351 0a06 0E94 0000 		call NutTcpSend
 2352 0a0a 45EF      		ldi r20,lo8(-11)
 2353 0a0c E42E      		mov r14,r20
 2354 0a0e 4FEF      		ldi r20,hi8(-11)
 2355 0a10 F42E      		mov r15,r20
 2356 0a12 E00E      		add r14,r16
 2357 0a14 F11E      		adc r15,r17
 2358 0a16 8E01      		movw r16,r28
 2359 0a18 045F      		subi r16,lo8(-(12))
 2360 0a1a 1F4F      		sbci r17,hi8(-(12))
 2361 0a1c C401      		movw r24,r8
 2362 0a1e 66E0      		ldi r22,lo8(4102)
 2363 0a20 70E1      		ldi r23,hi8(4102)
 2364 0a22 A801      		movw r20,r16
 2365 0a24 24E0      		ldi r18,lo8(4)
GAS LISTING C:\Users\hag\AppData\Local\Temp/ccM7gxWE.s 			page 46


 2366 0a26 30E0      		ldi r19,hi8(4)
 2367 0a28 0E94 0000 		call NutTcpGetSockOpt
 2368 0a2c 88E8      		ldi r24,lo8(5000)
 2369 0a2e 93E1      		ldi r25,hi8(5000)
 2370 0a30 A0E0      		ldi r26,hlo8(5000)
 2371 0a32 B0E0      		ldi r27,hhi8(5000)
 2372 0a34 8C87      		std Y+12,r24
 2373 0a36 9D87      		std Y+13,r25
 2374 0a38 AE87      		std Y+14,r26
 2375 0a3a BF87      		std Y+15,r27
 2376 0a3c C401      		movw r24,r8
 2377 0a3e 66E0      		ldi r22,lo8(4102)
 2378 0a40 70E1      		ldi r23,hi8(4102)
 2379 0a42 A801      		movw r20,r16
 2380 0a44 24E0      		ldi r18,lo8(4)
 2381 0a46 30E0      		ldi r19,hi8(4)
 2382 0a48 0E94 0000 		call NutTcpSetSockOpt
 2383 0a4c 00EE      		ldi r16,lo8(480)
 2384 0a4e 11E0      		ldi r17,hi8(480)
 2385 0a50 00C0      		rjmp .L128
 2386               	.L130:
 2387 0a52 C701      		movw r24,r14
 2388 0a54 0B96      		adiw r24,11
 2389 0a56 A801      		movw r20,r16
 2390 0a58 4E19      		sub r20,r14
 2391 0a5a 5F09      		sbc r21,r15
 2392 0a5c 2091 0000 		lds r18,ethTelnetFile
 2393 0a60 3091 0000 		lds r19,(ethTelnetFile)+1
 2394 0a64 8A0D      		add r24,r10
 2395 0a66 9B1D      		adc r25,r11
 2396 0a68 61E0      		ldi r22,lo8(1)
 2397 0a6a 70E0      		ldi r23,hi8(1)
 2398 0a6c 0E94 0000 		call fread
 2399 0a70 6C01      		movw r12,r24
 2400 0a72 1816      		cp __zero_reg__,r24
 2401 0a74 1906      		cpc __zero_reg__,r25
 2402 0a76 04F4      		brge .L129
 2403 0a78 E80E      		add r14,r24
 2404 0a7a F91E      		adc r15,r25
 2405               	.L128:
 2406 0a7c 70EE      		ldi r23,lo8(480)
 2407 0a7e E716      		cp r14,r23
 2408 0a80 71E0      		ldi r23,hi8(480)
 2409 0a82 F706      		cpc r15,r23
 2410 0a84 01F4      		brne .L130
 2411               	.L129:
 2412 0a86 1C86      		std Y+12,__zero_reg__
 2413 0a88 1D86      		std Y+13,__zero_reg__
 2414 0a8a 1E86      		std Y+14,__zero_reg__
 2415 0a8c 1F86      		std Y+15,__zero_reg__
 2416 0a8e C401      		movw r24,r8
 2417 0a90 66E0      		ldi r22,lo8(4102)
 2418 0a92 70E1      		ldi r23,hi8(4102)
 2419 0a94 AE01      		movw r20,r28
 2420 0a96 445F      		subi r20,lo8(-(12))
 2421 0a98 5F4F      		sbci r21,hi8(-(12))
 2422 0a9a 24E0      		ldi r18,lo8(4)
GAS LISTING C:\Users\hag\AppData\Local\Temp/ccM7gxWE.s 			page 47


 2423 0a9c 30E0      		ldi r19,hi8(4)
 2424 0a9e 0E94 0000 		call NutTcpSetSockOpt
 2425 0aa2 D7FC      		sbrc r13,7
 2426 0aa4 00C0      		rjmp .L63
 2427 0aa6 80EE      		ldi r24,lo8(480)
 2428 0aa8 E816      		cp r14,r24
 2429 0aaa 81E0      		ldi r24,hi8(480)
 2430 0aac F806      		cpc r15,r24
 2431 0aae 01F4      		brne .L131
 2432 0ab0 C501      		movw r24,r10
 2433 0ab2 0B96      		adiw r24,11
 2434 0ab4 0E94 0000 		call write_ini
 2435 0ab8 00C0      		rjmp .L154
 2436               	.L131:
 2437 0aba 2091 0000 		lds r18,ethTelnetFile
 2438 0abe 3091 0000 		lds r19,(ethTelnetFile)+1
 2439               	.L152:
 2440 0ac2 80E0      		ldi r24,lo8(.LC20)
 2441 0ac4 90E0      		ldi r25,hi8(.LC20)
 2442 0ac6 61E0      		ldi r22,lo8(1)
 2443 0ac8 70E0      		ldi r23,hi8(1)
 2444 0aca 47E0      		ldi r20,lo8(7)
 2445 0acc 50E0      		ldi r21,hi8(7)
 2446 0ace 00C0      		rjmp .L147
 2447               	.L127:
 2448 0ad0 C501      		movw r24,r10
 2449 0ad2 60E0      		ldi r22,lo8(.LC61)
 2450 0ad4 70E0      		ldi r23,hi8(.LC61)
 2451 0ad6 4AE0      		ldi r20,lo8(10)
 2452 0ad8 50E0      		ldi r21,hi8(10)
 2453 0ada 0E94 0000 		call strncmp
 2454 0ade 0097      		sbiw r24,0
 2455 0ae0 01F4      		brne .L132
 2456 0ae2 C501      		movw r24,r10
 2457 0ae4 0E94 0000 		call read_ini
 2458 0ae8 00E0      		ldi r16,lo8(0)
 2459 0aea 10E0      		ldi r17,hi8(0)
 2460 0aec 30EE      		ldi r19,lo8(480)
 2461 0aee E32E      		mov r14,r19
 2462 0af0 31E0      		ldi r19,hi8(480)
 2463 0af2 F32E      		mov r15,r19
 2464               	.L133:
 2465 0af4 B501      		movw r22,r10
 2466 0af6 600F      		add r22,r16
 2467 0af8 711F      		adc r23,r17
 2468 0afa A701      		movw r20,r14
 2469 0afc 401B      		sub r20,r16
 2470 0afe 510B      		sbc r21,r17
 2471 0b00 C401      		movw r24,r8
 2472 0b02 0E94 0000 		call NutTcpSend
 2473 0b06 080F      		add r16,r24
 2474 0b08 191F      		adc r17,r25
 2475 0b0a 91E0      		ldi r25,hi8(480)
 2476 0b0c 003E      		cpi r16,lo8(480)
 2477 0b0e 1907      		cpc r17,r25
 2478 0b10 01F4      		brne .L133
 2479 0b12 00C0      		rjmp .L66
GAS LISTING C:\Users\hag\AppData\Local\Temp/ccM7gxWE.s 			page 48


 2480               	.L132:
 2481 0b14 2091 0000 		lds r18,ethTelnetFile
 2482 0b18 3091 0000 		lds r19,(ethTelnetFile)+1
 2483 0b1c 80E0      		ldi r24,lo8(.LC62)
 2484 0b1e 90E0      		ldi r25,hi8(.LC62)
 2485 0b20 61E0      		ldi r22,lo8(1)
 2486 0b22 70E0      		ldi r23,hi8(1)
 2487 0b24 4FE0      		ldi r20,lo8(15)
 2488 0b26 50E0      		ldi r21,hi8(15)
 2489               	.L147:
 2490 0b28 0E94 0000 		call fwrite
 2491               	.L66:
 2492 0b2c 8091 0000 		lds r24,ethTelnetFile
 2493 0b30 9091 0000 		lds r25,(ethTelnetFile)+1
 2494 0b34 0E94 0000 		call fflush
 2495               	.L140:
 2496 0b38 8091 0000 		lds r24,haveConnectTelnet
 2497 0b3c 8823      		tst r24
 2498 0b3e 01F0      		breq .+2
 2499 0b40 00C0      		rjmp .L134
 2500               	.L63:
 2501 0b42 1092 0000 		sts haveConnectTelnet,__zero_reg__
 2502 0b46 C501      		movw r24,r10
 2503 0b48 0E94 0000 		call free
 2504 0b4c 8091 0000 		lds r24,ethTelnetFile
 2505 0b50 9091 0000 		lds r25,(ethTelnetFile)+1
 2506 0b54 0E94 0000 		call fclose
 2507 0b58 C401      		movw r24,r8
 2508 0b5a 0E94 0000 		call NutTcpCloseSocket
 2509 0b5e 80E0      		ldi r24,lo8(.LC63)
 2510 0b60 90E0      		ldi r25,hi8(.LC63)
 2511 0b62 0E94 0000 		call puts
 2512 0b66 00C0      		rjmp .L135
 2513               		.size	loopNetwork, .-loopNetwork
 2514               		.data
 2515               	.LC64:
 2516 0511 6574 6830 		.string	"eth0"
 2516      00
 2517               	.LC65:
 2518 0516 3139 322E 		.string	"192.168.88.101"
 2518      3136 382E 
 2518      3838 2E31 
 2518      3031 00
 2519               	.LC66:
 2520 0525 3235 352E 		.string	"255.255.255.0"
 2520      3235 352E 
 2520      3235 352E 
 2520      3000 
 2521               	.LC67:
 2522 0533 3139 322E 		.string	"192.168.88.1"
 2522      3136 382E 
 2522      3838 2E31 
 2522      00
 2523               	.LC68:
 2524 0540 2D2D 204C 		.string	"-- Loading default values and storing to EEPROM\r"
 2524      6F61 6469 
 2524      6E67 2064 
GAS LISTING C:\Users\hag\AppData\Local\Temp/ccM7gxWE.s 			page 49


 2524      6566 6175 
 2524      6C74 2076 
 2525               		.section	.text.defaultNet,"ax",@progbits
 2526               	.global	defaultNet
 2527               		.type	defaultNet, @function
 2528               	defaultNet:
 2529               	/* prologue: function */
 2530               	/* frame size = 0 */
 2531 0000 A0E0      		ldi r26,lo8(confnet+10)
 2532 0002 B0E0      		ldi r27,hi8(confnet+10)
 2533 0004 E0E0      		ldi r30,lo8(mac)
 2534 0006 F0E0      		ldi r31,hi8(mac)
 2535 0008 86E0      		ldi r24,lo8(6)
 2536               	.L164:
 2537 000a 0190      		ld r0,Z+
 2538 000c 0D92      		st X+,r0
 2539 000e 8150      		subi r24,lo8(-(-1))
 2540 0010 01F4      		brne .L164
 2541 0012 A0E0      		ldi r26,lo8(confnet+1)
 2542 0014 B0E0      		ldi r27,hi8(confnet+1)
 2543 0016 E0E0      		ldi r30,lo8(.LC64)
 2544 0018 F0E0      		ldi r31,hi8(.LC64)
 2545 001a 89E0      		ldi r24,lo8(9)
 2546               	.L165:
 2547 001c 0190      		ld r0,Z+
 2548 001e 0D92      		st X+,r0
 2549 0020 8150      		subi r24,lo8(-(-1))
 2550 0022 01F4      		brne .L165
 2551 0024 80E0      		ldi r24,lo8(.LC65)
 2552 0026 90E0      		ldi r25,hi8(.LC65)
 2553 0028 0E94 0000 		call inet_addr
 2554 002c 6093 0000 		sts confnet+16,r22
 2555 0030 7093 0000 		sts (confnet+16)+1,r23
 2556 0034 8093 0000 		sts (confnet+16)+2,r24
 2557 0038 9093 0000 		sts (confnet+16)+3,r25
 2558 003c 80E0      		ldi r24,lo8(.LC65)
 2559 003e 90E0      		ldi r25,hi8(.LC65)
 2560 0040 0E94 0000 		call inet_addr
 2561 0044 6093 0000 		sts confnet+28,r22
 2562 0048 7093 0000 		sts (confnet+28)+1,r23
 2563 004c 8093 0000 		sts (confnet+28)+2,r24
 2564 0050 9093 0000 		sts (confnet+28)+3,r25
 2565 0054 80E0      		ldi r24,lo8(.LC66)
 2566 0056 90E0      		ldi r25,hi8(.LC66)
 2567 0058 0E94 0000 		call inet_addr
 2568 005c 6093 0000 		sts confnet+20,r22
 2569 0060 7093 0000 		sts (confnet+20)+1,r23
 2570 0064 8093 0000 		sts (confnet+20)+2,r24
 2571 0068 9093 0000 		sts (confnet+20)+3,r25
 2572 006c 80E0      		ldi r24,lo8(.LC67)
 2573 006e 90E0      		ldi r25,hi8(.LC67)
 2574 0070 0E94 0000 		call inet_addr
 2575 0074 6093 0000 		sts confnet+24,r22
 2576 0078 7093 0000 		sts (confnet+24)+1,r23
 2577 007c 8093 0000 		sts (confnet+24)+2,r24
 2578 0080 9093 0000 		sts (confnet+24)+3,r25
 2579 0084 80E0      		ldi r24,lo8(.LC68)
GAS LISTING C:\Users\hag\AppData\Local\Temp/ccM7gxWE.s 			page 50


 2580 0086 90E0      		ldi r25,hi8(.LC68)
 2581 0088 0E94 0000 		call puts
 2582 008c 0E94 0000 		call NutNetSaveConfig
 2583               	/* epilogue start */
 2584 0090 0895      		ret
 2585               		.size	defaultNet, .-defaultNet
 2586               		.section	.text.initNetwork,"ax",@progbits
 2587               	.global	initNetwork
 2588               		.type	initNetwork, @function
 2589               	initNetwork:
 2590               	/* prologue: function */
 2591               	/* frame size = 0 */
 2592 0000 80E0      		ldi r24,lo8(.LC64)
 2593 0002 90E0      		ldi r25,hi8(.LC64)
 2594 0004 0E94 0000 		call NutNetLoadConfig
 2595 0008 892B      		or r24,r25
 2596 000a 01F0      		breq .L171
 2597 000c 0E94 0000 		call defaultNet
 2598               	.L171:
 2599 0010 0895      		ret
 2600               		.size	initNetwork, .-initNetwork
 2601               	.global	mac
 2602               		.data
 2603               		.type	mac, @object
 2604               		.size	mac, 6
 2605               	mac:
 2606 0571 00        		.byte	0
 2607 0572 0A        		.byte	10
 2608 0573 59        		.byte	89
 2609 0574 04        		.byte	4
 2610 0575 01        		.byte	1
 2611 0576 01        		.byte	1
 2612               	.global	haveConnectTelnet
 2613               	.global	haveConnectTelnet
 2614               		.section .bss
 2615               		.type	haveConnectTelnet, @object
 2616               		.size	haveConnectTelnet, 1
 2617               	haveConnectTelnet:
 2618 0000 00        		.skip 1,0
 2619               	.global	haveConnectReflect
 2620               	.global	haveConnectReflect
 2621               		.type	haveConnectReflect, @object
 2622               		.size	haveConnectReflect, 1
 2623               	haveConnectReflect:
 2624 0001 00        		.skip 1,0
 2625               	.global	have_reset_command
 2626               	.global	have_reset_command
 2627               		.type	have_reset_command, @object
 2628               		.size	have_reset_command, 1
 2629               	have_reset_command:
 2630 0002 00        		.skip 1,0
 2631               	.global	pc_loaded
 2632               	.global	pc_loaded
 2633               		.type	pc_loaded, @object
 2634               		.size	pc_loaded, 1
 2635               	pc_loaded:
 2636 0003 00        		.skip 1,0
GAS LISTING C:\Users\hag\AppData\Local\Temp/ccM7gxWE.s 			page 51


 2637               	.global	bad_work_enable
 2638               	.global	bad_work_enable
 2639               		.type	bad_work_enable, @object
 2640               		.size	bad_work_enable, 1
 2641               	bad_work_enable:
 2642 0004 00        		.skip 1,0
 2643               		.comm sockReflect,2,1
 2644               		.comm ip_addr,4,1
 2645               		.comm ip_mask,4,1
 2646               		.comm ip_gateway,4,1
 2647               		.comm ethTelnetFile,2,1
 2648               	.global __do_copy_data
 2649               	.global __do_clear_bss
GAS LISTING C:\Users\hag\AppData\Local\Temp/ccM7gxWE.s 			page 52


DEFINED SYMBOLS
                            *ABS*:00000000 network.c
C:\Users\hag\AppData\Local\Temp/ccM7gxWE.s:2      *ABS*:0000003f __SREG__
C:\Users\hag\AppData\Local\Temp/ccM7gxWE.s:3      *ABS*:0000003e __SP_H__
C:\Users\hag\AppData\Local\Temp/ccM7gxWE.s:4      *ABS*:0000003d __SP_L__
C:\Users\hag\AppData\Local\Temp/ccM7gxWE.s:5      *ABS*:00000034 __CCP__
C:\Users\hag\AppData\Local\Temp/ccM7gxWE.s:6      *ABS*:00000000 __tmp_reg__
C:\Users\hag\AppData\Local\Temp/ccM7gxWE.s:7      *ABS*:00000001 __zero_reg__
C:\Users\hag\AppData\Local\Temp/ccM7gxWE.s:28     .text.UdpFind:00000000 UdpFind
C:\Users\hag\AppData\Local\Temp/ccM7gxWE.s:440    .text.ReflectThread:00000000 ReflectThread
C:\Users\hag\AppData\Local\Temp/ccM7gxWE.s:2623   .bss:00000001 haveConnectReflect
                            *COM*:00000002 sockReflect
C:\Users\hag\AppData\Local\Temp/ccM7gxWE.s:2635   .bss:00000003 pc_loaded
C:\Users\hag\AppData\Local\Temp/ccM7gxWE.s:2641   .bss:00000004 bad_work_enable
C:\Users\hag\AppData\Local\Temp/ccM7gxWE.s:1133   .text.loopNetwork:00000000 loopNetwork
C:\Users\hag\AppData\Local\Temp/ccM7gxWE.s:2617   .bss:00000000 haveConnectTelnet
                            *COM*:00000002 ethTelnetFile
C:\Users\hag\AppData\Local\Temp/ccM7gxWE.s:2629   .bss:00000002 have_reset_command
C:\Users\hag\AppData\Local\Temp/ccM7gxWE.s:2528   .text.defaultNet:00000000 defaultNet
C:\Users\hag\AppData\Local\Temp/ccM7gxWE.s:2605   .data:00000571 mac
C:\Users\hag\AppData\Local\Temp/ccM7gxWE.s:2589   .text.initNetwork:00000000 initNetwork
                            *COM*:00000004 ip_addr
                            *COM*:00000004 ip_mask
                            *COM*:00000004 ip_gateway

UNDEFINED SYMBOLS
NutUdpCreateSocket
malloc
NutUdpReceiveFrom
strncmp
printf
strcpy
confnet
get_rtu_number
NutVersion
NutUdpSendTo
set_rtu_number
NutNetSaveConfig
PrintNetworkParam
charon_reset
NutTcpCreateSocket
NutTcpAccept
inet_ntoa
otdr_rs232_manual
NutTcpSetSockOpt
NutTcpReceive
NutTcpError
otdr_reset
SPI_write_byte
disable_int_key
disable_timer1
otau_get_channel
display_show
con_otdr
win_loaded
enable_timer1
NutTcpSend
GAS LISTING C:\Users\hag\AppData\Local\Temp/ccM7gxWE.s 			page 53


enable_int_key
SPI_write_buffer
free
NutTcpCloseSocket
puts
_fdopen
fread
strcmp
otau_reset
otau_get_count_channels
sprintf
sscanf
otau_set_channel
fwrite
display_set_channel
otau_check_alive
reset_ext
SPI_have_data
SPI_read_byte
ds_convert_temperature_command
ds_read_temperature_command
stop_timer1
set_start_time_min
set_start_time_sec
display_set_cursor_pos
display_write_byte
boot
set_power_ii
set_power_ac
NutTcpGetSockOpt
write_ini
read_ini
fflush
fclose
inet_addr
NutNetLoadConfig
__do_copy_data
__do_clear_bss
