GAS LISTING C:\Users\hag\AppData\Local\Temp/ccHKG4gi.s 			page 1


   1               		.file	"services.c"
   2               	__SREG__ = 0x3f
   3               	__SP_H__ = 0x3e
   4               	__SP_L__ = 0x3d
   5               	__CCP__  = 0x34
   6               	__tmp_reg__ = 0
   7               	__zero_reg__ = 1
   8               		.section	.text.init_key,"ax",@progbits
   9               	.global	init_key
  10               		.type	init_key, @function
  11               	init_key:
  12               	/* prologue: function */
  13               	/* frame size = 0 */
  14 0000 1498      		cbi 34-32,4
  15 0002 1C9A      		sbi 35-32,4
  16 0004 8AB7      		in r24,90-32
  17 0006 8260      		ori r24,lo8(2)
  18 0008 8ABF      		out 90-32,r24
  19 000a 8AB7      		in r24,90-32
  20 000c 8E7F      		andi r24,lo8(-2)
  21 000e 8ABF      		out 90-32,r24
  22 0010 89B7      		in r24,89-32
  23 0012 8061      		ori r24,lo8(16)
  24 0014 89BF      		out 89-32,r24
  25               	/* epilogue start */
  26 0016 0895      		ret
  27               		.size	init_key, .-init_key
  28               		.section	.text.enable_int_key,"ax",@progbits
  29               	.global	enable_int_key
  30               		.type	enable_int_key, @function
  31               	enable_int_key:
  32               	/* prologue: function */
  33               	/* frame size = 0 */
  34 0000 89B7      		in r24,89-32
  35 0002 8061      		ori r24,lo8(16)
  36 0004 89BF      		out 89-32,r24
  37               	/* epilogue start */
  38 0006 0895      		ret
  39               		.size	enable_int_key, .-enable_int_key
  40               		.section	.text.disable_int_key,"ax",@progbits
  41               	.global	disable_int_key
  42               		.type	disable_int_key, @function
  43               	disable_int_key:
  44               	/* prologue: function */
  45               	/* frame size = 0 */
  46 0000 89B7      		in r24,89-32
  47 0002 8F7E      		andi r24,lo8(-17)
  48 0004 89BF      		out 89-32,r24
  49               	/* epilogue start */
  50 0006 0895      		ret
  51               		.size	disable_int_key, .-disable_int_key
  52               		.section	.text.init_power_pc,"ax",@progbits
  53               	.global	init_power_pc
  54               		.type	init_power_pc, @function
  55               	init_power_pc:
  56               	/* prologue: function */
  57               	/* frame size = 0 */
GAS LISTING C:\Users\hag\AppData\Local\Temp/ccHKG4gi.s 			page 2


  58 0000 8C98      		cbi 49-32,4
  59 0002 949A      		sbi 50-32,4
  60 0004 8998      		cbi 49-32,1
  61 0006 919A      		sbi 50-32,1
  62 0008 8AB7      		in r24,90-32
  63 000a 8860      		ori r24,lo8(8)
  64 000c 8ABF      		out 90-32,r24
  65 000e 8AB7      		in r24,90-32
  66 0010 8B7F      		andi r24,lo8(-5)
  67 0012 8ABF      		out 90-32,r24
  68 0014 89B7      		in r24,89-32
  69 0016 8260      		ori r24,lo8(2)
  70 0018 89BF      		out 89-32,r24
  71               	/* epilogue start */
  72 001a 0895      		ret
  73               		.size	init_power_pc, .-init_power_pc
  74               		.section	.text.enable_int_power_sw,"ax",@progbits
  75               	.global	enable_int_power_sw
  76               		.type	enable_int_power_sw, @function
  77               	enable_int_power_sw:
  78               	/* prologue: function */
  79               	/* frame size = 0 */
  80 0000 89B7      		in r24,89-32
  81 0002 8260      		ori r24,lo8(2)
  82 0004 89BF      		out 89-32,r24
  83               	/* epilogue start */
  84 0006 0895      		ret
  85               		.size	enable_int_power_sw, .-enable_int_power_sw
  86               		.section	.text.disable_int_power_sw,"ax",@progbits
  87               	.global	disable_int_power_sw
  88               		.type	disable_int_power_sw, @function
  89               	disable_int_power_sw:
  90               	/* prologue: function */
  91               	/* frame size = 0 */
  92 0000 89B7      		in r24,89-32
  93 0002 8D7F      		andi r24,lo8(-3)
  94 0004 89BF      		out 89-32,r24
  95               	/* epilogue start */
  96 0006 0895      		ret
  97               		.size	disable_int_power_sw, .-disable_int_power_sw
  98               		.section	.text.reset_ext,"ax",@progbits
  99               	.global	reset_ext
 100               		.type	reset_ext, @function
 101               	reset_ext:
 102               	/* prologue: function */
 103               	/* frame size = 0 */
 104 0000 89B7      		in r24,89-32
 105 0002 8D7F      		andi r24,lo8(-3)
 106 0004 89BF      		out 89-32,r24
 107 0006 899A      		sbi 49-32,1
 108 0008 9198      		cbi 50-32,1
 109 000a 80E0      		ldi r24,lo8(0)
 110 000c 90E0      		ldi r25,hi8(0)
 111 000e 20E6      		ldi r18,lo8(-5536)
 112 0010 3AEE      		ldi r19,hi8(-5536)
 113               	.L14:
 114 0012 F901      		movw r30,r18
GAS LISTING C:\Users\hag\AppData\Local\Temp/ccHKG4gi.s 			page 3


 115               	/* #APP */
 116               	 ;  105 "c:/winavr-20100110/lib/gcc/../../avr/include/util/delay_basic.h" 1
 117 0014 3197      		1: sbiw r30,1
 118 0016 01F4      		brne 1b
 119               	 ;  0 "" 2
 120               	/* #NOAPP */
 121 0018 0196      		adiw r24,1
 122 001a 41E0      		ldi r20,hi8(307)
 123 001c 8333      		cpi r24,lo8(307)
 124 001e 9407      		cpc r25,r20
 125 0020 01F4      		brne .L14
 126 0022 919A      		sbi 50-32,1
 127 0024 80E0      		ldi r24,lo8(0)
 128 0026 90E0      		ldi r25,hi8(0)
 129 0028 20E6      		ldi r18,lo8(-5536)
 130 002a 3AEE      		ldi r19,hi8(-5536)
 131               	.L15:
 132 002c F901      		movw r30,r18
 133               	/* #APP */
 134               	 ;  105 "c:/winavr-20100110/lib/gcc/../../avr/include/util/delay_basic.h" 1
 135 002e 3197      		1: sbiw r30,1
 136 0030 01F4      		brne 1b
 137               	 ;  0 "" 2
 138               	/* #NOAPP */
 139 0032 0196      		adiw r24,1
 140 0034 8D33      		cpi r24,61
 141 0036 9105      		cpc r25,__zero_reg__
 142 0038 01F4      		brne .L15
 143 003a 9198      		cbi 50-32,1
 144 003c 80E0      		ldi r24,lo8(0)
 145 003e 90E0      		ldi r25,hi8(0)
 146 0040 20E6      		ldi r18,lo8(-5536)
 147 0042 3AEE      		ldi r19,hi8(-5536)
 148               	.L16:
 149 0044 F901      		movw r30,r18
 150               	/* #APP */
 151               	 ;  105 "c:/winavr-20100110/lib/gcc/../../avr/include/util/delay_basic.h" 1
 152 0046 3197      		1: sbiw r30,1
 153 0048 01F4      		brne 1b
 154               	 ;  0 "" 2
 155               	/* #NOAPP */
 156 004a 0196      		adiw r24,1
 157 004c 8F31      		cpi r24,31
 158 004e 9105      		cpc r25,__zero_reg__
 159 0050 01F4      		brne .L16
 160 0052 919A      		sbi 50-32,1
 161 0054 8998      		cbi 49-32,1
 162 0056 89B7      		in r24,89-32
 163 0058 8260      		ori r24,lo8(2)
 164 005a 89BF      		out 89-32,r24
 165               	/* epilogue start */
 166 005c 0895      		ret
 167               		.size	reset_ext, .-reset_ext
 168               		.section	.text.get_start_time_min,"ax",@progbits
 169               	.global	get_start_time_min
 170               		.type	get_start_time_min, @function
 171               	get_start_time_min:
GAS LISTING C:\Users\hag\AppData\Local\Temp/ccHKG4gi.s 			page 4


 172               	/* prologue: function */
 173               	/* frame size = 0 */
 174 0000 8DE0      		ldi r24,lo8(13)
 175               	/* epilogue start */
 176 0002 0895      		ret
 177               		.size	get_start_time_min, .-get_start_time_min
 178               		.section	.text.set_start_time_min,"ax",@progbits
 179               	.global	set_start_time_min
 180               		.type	set_start_time_min, @function
 181               	set_start_time_min:
 182               	/* prologue: function */
 183               	/* frame size = 0 */
 184               	/* epilogue start */
 185 0000 0895      		ret
 186               		.size	set_start_time_min, .-set_start_time_min
 187               		.section	.text.get_start_time_sec,"ax",@progbits
 188               	.global	get_start_time_sec
 189               		.type	get_start_time_sec, @function
 190               	get_start_time_sec:
 191               	/* prologue: function */
 192               	/* frame size = 0 */
 193 0000 8DE0      		ldi r24,lo8(13)
 194               	/* epilogue start */
 195 0002 0895      		ret
 196               		.size	get_start_time_sec, .-get_start_time_sec
 197               		.section	.text.set_start_time_sec,"ax",@progbits
 198               	.global	set_start_time_sec
 199               		.type	set_start_time_sec, @function
 200               	set_start_time_sec:
 201               	/* prologue: function */
 202               	/* frame size = 0 */
 203               	/* epilogue start */
 204 0000 0895      		ret
 205               		.size	set_start_time_sec, .-set_start_time_sec
 206               		.section	.text.ac_ii_init,"ax",@progbits
 207               	.global	ac_ii_init
 208               		.type	ac_ii_init, @function
 209               	ac_ii_init:
 210               	/* prologue: function */
 211               	/* frame size = 0 */
 212 0000 BE9A      		sbi 55-32,6
 213 0002 BF9A      		sbi 55-32,7
 214 0004 C698      		cbi 56-32,6
 215 0006 C798      		cbi 56-32,7
 216               	/* epilogue start */
 217 0008 0895      		ret
 218               		.size	ac_ii_init, .-ac_ii_init
 219               		.section	.text.set_power_ac,"ax",@progbits
 220               	.global	set_power_ac
 221               		.type	set_power_ac, @function
 222               	set_power_ac:
 223               	/* prologue: function */
 224               	/* frame size = 0 */
 225 0000 0097      		sbiw r24,0
 226 0002 01F4      		brne .L32
 227 0004 C698      		cbi 56-32,6
 228 0006 81E0      		ldi r24,lo8(1)
GAS LISTING C:\Users\hag\AppData\Local\Temp/ccHKG4gi.s 			page 5


 229 0008 0895      		ret
 230               	.L32:
 231 000a 0197      		sbiw r24,1
 232 000c 01F0      		breq .L34
 233 000e 80E0      		ldi r24,lo8(0)
 234 0010 0895      		ret
 235               	.L34:
 236 0012 C69A      		sbi 56-32,6
 237 0014 81E0      		ldi r24,lo8(1)
 238 0016 0895      		ret
 239               		.size	set_power_ac, .-set_power_ac
 240               		.section	.text.set_power_ii,"ax",@progbits
 241               	.global	set_power_ii
 242               		.type	set_power_ii, @function
 243               	set_power_ii:
 244               	/* prologue: function */
 245               	/* frame size = 0 */
 246 0000 0097      		sbiw r24,0
 247 0002 01F4      		brne .L37
 248 0004 C798      		cbi 56-32,7
 249 0006 81E0      		ldi r24,lo8(1)
 250 0008 0895      		ret
 251               	.L37:
 252 000a 0197      		sbiw r24,1
 253 000c 01F0      		breq .L39
 254 000e 80E0      		ldi r24,lo8(0)
 255 0010 0895      		ret
 256               	.L39:
 257 0012 C79A      		sbi 56-32,7
 258 0014 81E0      		ldi r24,lo8(1)
 259 0016 0895      		ret
 260               		.size	set_power_ii, .-set_power_ii
 261               		.section	.text.otau_get_count_channels,"ax",@progbits
 262               	.global	otau_get_count_channels
 263               		.type	otau_get_count_channels, @function
 264               	otau_get_count_channels:
 265               	/* prologue: function */
 266               	/* frame size = 0 */
 267 0000 8091 0000 		lds r24,otau_count_channels
 268               	/* epilogue start */
 269 0004 0895      		ret
 270               		.size	otau_get_count_channels, .-otau_get_count_channels
 271               		.section	.text.otdr_reset,"ax",@progbits
 272               	.global	otdr_reset
 273               		.type	otdr_reset, @function
 274               	otdr_reset:
 275               	/* prologue: function */
 276               	/* frame size = 0 */
 277 0000 959A      		sbi 50-32,5
 278 0002 86E6      		ldi r24,lo8(3686)
 279 0004 9EE0      		ldi r25,hi8(3686)
 280               	/* #APP */
 281               	 ;  105 "c:/winavr-20100110/lib/gcc/../../avr/include/util/delay_basic.h" 1
 282 0006 0197      		1: sbiw r24,1
 283 0008 01F4      		brne 1b
 284               	 ;  0 "" 2
 285               	/* #NOAPP */
GAS LISTING C:\Users\hag\AppData\Local\Temp/ccHKG4gi.s 			page 6


 286 000a 9598      		cbi 50-32,5
 287 000c 20E0      		ldi r18,lo8(0)
 288 000e 40E5      		ldi r20,lo8(-15536)
 289 0010 53EC      		ldi r21,hi8(-15536)
 290               	.L44:
 291 0012 CA01      		movw r24,r20
 292               	/* #APP */
 293               	 ;  105 "c:/winavr-20100110/lib/gcc/../../avr/include/util/delay_basic.h" 1
 294 0014 0197      		1: sbiw r24,1
 295 0016 01F4      		brne 1b
 296               	 ;  0 "" 2
 297               	/* #NOAPP */
 298 0018 2F5F      		subi r18,lo8(-(1))
 299 001a 2A34      		cpi r18,lo8(74)
 300 001c 01F4      		brne .L44
 301               	/* epilogue start */
 302 001e 0895      		ret
 303               		.size	otdr_reset, .-otdr_reset
 304               		.section	.text.init_timer1,"ax",@progbits
 305               	.global	init_timer1
 306               		.type	init_timer1, @function
 307               	init_timer1:
 308               	/* prologue: function */
 309               	/* frame size = 0 */
 310 0000 8FE1      		ldi r24,lo8(31)
 311 0002 8DBD      		out 77-32,r24
 312 0004 82E0      		ldi r24,lo8(2)
 313 0006 8CBD      		out 76-32,r24
 314 0008 84E0      		ldi r24,lo8(4)
 315 000a 8EBD      		out 78-32,r24
 316 000c 87B7      		in r24,87-32
 317 000e 8460      		ori r24,lo8(4)
 318 0010 87BF      		out 87-32,r24
 319               	/* epilogue start */
 320 0012 0895      		ret
 321               		.size	init_timer1, .-init_timer1
 322               		.section	.text.enable_timer1,"ax",@progbits
 323               	.global	enable_timer1
 324               		.type	enable_timer1, @function
 325               	enable_timer1:
 326               	/* prologue: function */
 327               	/* frame size = 0 */
 328 0000 81E0      		ldi r24,lo8(1)
 329 0002 8093 0000 		sts enable_timer1_flag,r24
 330               	/* epilogue start */
 331 0006 0895      		ret
 332               		.size	enable_timer1, .-enable_timer1
 333               		.section	.text.disable_timer1,"ax",@progbits
 334               	.global	disable_timer1
 335               		.type	disable_timer1, @function
 336               	disable_timer1:
 337               	/* prologue: function */
 338               	/* frame size = 0 */
 339 0000 1092 0000 		sts enable_timer1_flag,__zero_reg__
 340               	/* epilogue start */
 341 0004 0895      		ret
 342               		.size	disable_timer1, .-disable_timer1
GAS LISTING C:\Users\hag\AppData\Local\Temp/ccHKG4gi.s 			page 7


 343               		.section	.text.stop_timer1,"ax",@progbits
 344               	.global	stop_timer1
 345               		.type	stop_timer1, @function
 346               	stop_timer1:
 347               	/* prologue: function */
 348               	/* frame size = 0 */
 349 0000 87B7      		in r24,87-32
 350 0002 8B7F      		andi r24,lo8(-5)
 351 0004 87BF      		out 87-32,r24
 352 0006 1EBC      		out 78-32,__zero_reg__
 353               	/* epilogue start */
 354 0008 0895      		ret
 355               		.size	stop_timer1, .-stop_timer1
 356               		.section	.text.charon_reset,"ax",@progbits
 357               	.global	charon_reset
 358               		.type	charon_reset, @function
 359               	charon_reset:
 360               	/* prologue: function */
 361               	/* frame size = 0 */
 362 0000 28E0      		ldi r18,lo8(8)
 363 0002 88E1      		ldi r24,lo8(24)
 364 0004 90E0      		ldi r25,hi8(24)
 365               	/* #APP */
 366               	 ;  357 "services.c" 1
 367 0006 0FB6      		in __tmp_reg__,__SREG__
 368 0008 F894      		cli
 369 000a A895      		wdr
 370 000c 81BD      		out 33,r24
 371 000e 0FBE      		out __SREG__,__tmp_reg__
 372 0010 21BD      		out 33,r18
 373               	 ;  0 "" 2
 374               	/* #NOAPP */
 375               	.L56:
 376 0012 00C0      		rjmp .L56
 377               		.size	charon_reset, .-charon_reset
 378               		.section	.text.__vector_5,"ax",@progbits
 379               	.global	__vector_5
 380               		.type	__vector_5, @function
 381               	__vector_5:
 382 0000 1F92      		push __zero_reg__
 383 0002 0F92      		push r0
 384 0004 0FB6      		in r0,__SREG__
 385 0006 0F92      		push r0
 386 0008 0BB6      		in r0,91-32
 387 000a 0F92      		push r0
 388 000c 1124      		clr __zero_reg__
 389 000e 8F93      		push r24
 390 0010 9F93      		push r25
 391 0012 EF93      		push r30
 392 0014 FF93      		push r31
 393               	/* prologue: Signal */
 394               	/* frame size = 0 */
 395 0016 E091 0000 		lds r30,otau_event
 396 001a F091 0000 		lds r31,(otau_event)+1
 397 001e 3097      		sbiw r30,0
 398 0020 01F4      		brne .L59
 399 0022 8FEF      		ldi r24,lo8(-1)
GAS LISTING C:\Users\hag\AppData\Local\Temp/ccHKG4gi.s 			page 8


 400 0024 9FEF      		ldi r25,hi8(-1)
 401 0026 9093 0000 		sts (otau_event)+1,r25
 402 002a 8093 0000 		sts otau_event,r24
 403 002e 00C0      		rjmp .L60
 404               	.L59:
 405 0030 8FEF      		ldi r24,hi8(-1)
 406 0032 EF3F      		cpi r30,lo8(-1)
 407 0034 F807      		cpc r31,r24
 408 0036 01F0      		breq .L60
 409 0038 8481      		ldd r24,Z+4
 410 003a 9581      		ldd r25,Z+5
 411 003c 0196      		adiw r24,1
 412 003e 9583      		std Z+5,r25
 413 0040 8483      		std Z+4,r24
 414               	.L60:
 415 0042 88B7      		in r24,88-32
 416 0044 8061      		ori r24,lo8(16)
 417 0046 88BF      		out 88-32,r24
 418               	/* epilogue start */
 419 0048 FF91      		pop r31
 420 004a EF91      		pop r30
 421 004c 9F91      		pop r25
 422 004e 8F91      		pop r24
 423 0050 0F90      		pop r0
 424 0052 0BBE      		out 91-32,r0
 425 0054 0F90      		pop r0
 426 0056 0FBE      		out __SREG__,r0
 427 0058 0F90      		pop r0
 428 005a 1F90      		pop __zero_reg__
 429 005c 1895      		reti
 430               		.size	__vector_5, .-__vector_5
 431               		.section	.text.__vector_2,"ax",@progbits
 432               	.global	__vector_2
 433               		.type	__vector_2, @function
 434               	__vector_2:
 435 0000 1F92      		push __zero_reg__
 436 0002 0F92      		push r0
 437 0004 0FB6      		in r0,__SREG__
 438 0006 0F92      		push r0
 439 0008 0BB6      		in r0,91-32
 440 000a 0F92      		push r0
 441 000c 1124      		clr __zero_reg__
 442 000e 8F93      		push r24
 443 0010 9F93      		push r25
 444 0012 EF93      		push r30
 445 0014 FF93      		push r31
 446               	/* prologue: Signal */
 447               	/* frame size = 0 */
 448 0016 E091 0000 		lds r30,power_sw_event
 449 001a F091 0000 		lds r31,(power_sw_event)+1
 450 001e 3097      		sbiw r30,0
 451 0020 01F4      		brne .L63
 452 0022 8FEF      		ldi r24,lo8(-1)
 453 0024 9FEF      		ldi r25,hi8(-1)
 454 0026 9093 0000 		sts (power_sw_event)+1,r25
 455 002a 8093 0000 		sts power_sw_event,r24
 456 002e 00C0      		rjmp .L64
GAS LISTING C:\Users\hag\AppData\Local\Temp/ccHKG4gi.s 			page 9


 457               	.L63:
 458 0030 8FEF      		ldi r24,hi8(-1)
 459 0032 EF3F      		cpi r30,lo8(-1)
 460 0034 F807      		cpc r31,r24
 461 0036 01F0      		breq .L64
 462 0038 8481      		ldd r24,Z+4
 463 003a 9581      		ldd r25,Z+5
 464 003c 0196      		adiw r24,1
 465 003e 9583      		std Z+5,r25
 466 0040 8483      		std Z+4,r24
 467               	.L64:
 468 0042 88B7      		in r24,88-32
 469 0044 8260      		ori r24,lo8(2)
 470 0046 88BF      		out 88-32,r24
 471 0048 89B7      		in r24,89-32
 472 004a 8D7F      		andi r24,lo8(-3)
 473 004c 89BF      		out 89-32,r24
 474               	/* epilogue start */
 475 004e FF91      		pop r31
 476 0050 EF91      		pop r30
 477 0052 9F91      		pop r25
 478 0054 8F91      		pop r24
 479 0056 0F90      		pop r0
 480 0058 0BBE      		out 91-32,r0
 481 005a 0F90      		pop r0
 482 005c 0FBE      		out __SREG__,r0
 483 005e 0F90      		pop r0
 484 0060 1F90      		pop __zero_reg__
 485 0062 1895      		reti
 486               		.size	__vector_2, .-__vector_2
 487               		.section	.bootloader,"ax",@progbits
 488               	.global	boot
 489               		.type	boot, @function
 490               	boot:
 491 0000 2F92      		push r2
 492 0002 3F92      		push r3
 493 0004 4F92      		push r4
 494 0006 5F92      		push r5
 495 0008 6F92      		push r6
 496 000a 7F92      		push r7
 497 000c 8F92      		push r8
 498 000e 9F92      		push r9
 499 0010 AF92      		push r10
 500 0012 BF92      		push r11
 501 0014 CF92      		push r12
 502 0016 DF92      		push r13
 503 0018 EF92      		push r14
 504 001a FF92      		push r15
 505 001c 0F93      		push r16
 506 001e 1F93      		push r17
 507 0020 DF93      		push r29
 508 0022 CF93      		push r28
 509 0024 CDB7      		in r28,__SP_L__
 510 0026 DEB7      		in r29,__SP_H__
 511 0028 2A97      		sbiw r28,10
 512 002a 0FB6      		in __tmp_reg__,__SREG__
 513 002c F894      		cli
GAS LISTING C:\Users\hag\AppData\Local\Temp/ccHKG4gi.s 			page 10


 514 002e DEBF      		out __SP_H__,r29
 515 0030 0FBE      		out __SREG__,__tmp_reg__
 516 0032 CDBF      		out __SP_L__,r28
 517               	/* prologue: function */
 518               	/* frame size = 10 */
 519 0034 9A87      		std Y+10,r25
 520 0036 8987      		std Y+9,r24
 521               	/* #APP */
 522               	 ;  694 "services.c" 1
 523 0038 F894      		cli
 524               	 ;  0 "" 2
 525               	/* #NOAPP */
 526 003a 80EF      		ldi r24,lo8(-16)
 527 003c 0E94 0000 		call uart0_send
 528 0040 8985      		ldd r24,Y+9
 529 0042 9A85      		ldd r25,Y+10
 530 0044 66E0      		ldi r22,lo8(6)
 531 0046 70E0      		ldi r23,hi8(6)
 532 0048 0E94 0000 		call uart0_rec_buff
 533 004c A985      		ldd r26,Y+9
 534 004e BA85      		ldd r27,Y+10
 535 0050 8C91      		ld r24,X
 536 0052 8331      		cpi r24,lo8(19)
 537 0054 01F4      		brne .L67
 538 0056 1196      		adiw r26,1
 539 0058 8C91      		ld r24,X
 540 005a 1197      		sbiw r26,1
 541 005c 8431      		cpi r24,lo8(20)
 542 005e 01F4      		brne .L67
 543 0060 1296      		adiw r26,2
 544 0062 8C91      		ld r24,X
 545 0064 1297      		sbiw r26,2
 546 0066 8531      		cpi r24,lo8(21)
 547 0068 01F4      		brne .L67
 548 006a 1396      		adiw r26,3
 549 006c 8C91      		ld r24,X
 550 006e 1397      		sbiw r26,3
 551 0070 8631      		cpi r24,lo8(22)
 552 0072 01F4      		brne .L67
 553 0074 1496      		adiw r26,4
 554 0076 8C91      		ld r24,X
 555 0078 1497      		sbiw r26,4
 556 007a 8731      		cpi r24,lo8(23)
 557 007c 01F4      		brne .L67
 558 007e 1596      		adiw r26,5
 559 0080 8C91      		ld r24,X
 560 0082 8831      		cpi r24,lo8(24)
 561 0084 01F4      		brne .+2
 562 0086 00C0      		rjmp .L68
 563               	.L67:
 564 0088 81EF      		ldi r24,lo8(-15)
 565 008a 0E94 0000 		call uart0_send
 566               	/* #APP */
 567               	 ;  711 "services.c" 1
 568 008e 7894      		sei
 569               	 ;  0 "" 2
 570               	/* #NOAPP */
GAS LISTING C:\Users\hag\AppData\Local\Temp/ccHKG4gi.s 			page 11


 571 0090 00C0      		rjmp .L69
 572               	.L81:
 573 0092 D401      		movw r26,r8
 574 0094 C301      		movw r24,r6
 575 0096 8E19      		sub r24,r14
 576 0098 9F09      		sbc r25,r15
 577 009a A00B      		sbc r26,r16
 578 009c B10B      		sbc r27,r17
 579 009e 8150      		subi r24,lo8(257)
 580 00a0 9140      		sbci r25,hi8(257)
 581 00a2 A040      		sbci r26,hlo8(257)
 582 00a4 B040      		sbci r27,hhi8(257)
 583 00a6 00F0      		brlo .L70
 584 00a8 412C      		mov r4,__zero_reg__
 585 00aa A1E0      		ldi r26,hi8(256)
 586 00ac 5A2E      		mov r5,r26
 587 00ae 00C0      		rjmp .L71
 588               	.L70:
 589 00b0 2301      		movw r4,r6
 590 00b2 4E18      		sub r4,r14
 591 00b4 5F08      		sbc r5,r15
 592               	.L71:
 593 00b6 8985      		ldd r24,Y+9
 594 00b8 9A85      		ldd r25,Y+10
 595 00ba B201      		movw r22,r4
 596 00bc 0E94 0000 		call uart0_rec_buff
 597 00c0 E985      		ldd r30,Y+9
 598 00c2 FA85      		ldd r31,Y+10
 599 00c4 E40D      		add r30,r4
 600 00c6 F51D      		adc r31,r5
 601 00c8 C201      		movw r24,r4
 602 00ca 00C0      		rjmp .L72
 603               	.L73:
 604 00cc 2FEF      		ldi r18,lo8(-1)
 605 00ce 2193      		st Z+,r18
 606 00d0 0196      		adiw r24,1
 607               	.L72:
 608 00d2 8F3F      		cpi r24,255
 609 00d4 9105      		cpc r25,__zero_reg__
 610 00d6 01F0      		breq .L73
 611 00d8 04F0      		brlt .L73
 612 00da 5201      		movw r10,r4
 613 00dc CC24      		clr r12
 614 00de B7FC      		sbrc r11,7
 615 00e0 C094      		com r12
 616 00e2 DC2C      		mov r13,r12
 617 00e4 AE0C      		add r10,r14
 618 00e6 BF1C      		adc r11,r15
 619 00e8 C01E      		adc r12,r16
 620 00ea D11E      		adc r13,r17
 621 00ec 31E0      		ldi r19,lo8(61441)
 622 00ee A316      		cp r10,r19
 623 00f0 30EF      		ldi r19,hi8(61441)
 624 00f2 B306      		cpc r11,r19
 625 00f4 30E0      		ldi r19,hlo8(61441)
 626 00f6 C306      		cpc r12,r19
 627 00f8 30E0      		ldi r19,hhi8(61441)
GAS LISTING C:\Users\hag\AppData\Local\Temp/ccHKG4gi.s 			page 12


 628 00fa D306      		cpc r13,r19
 629 00fc 00F0      		brlo .+2
 630 00fe 00C0      		rjmp .L74
 631 0100 40E0      		ldi r20,lo8(65536)
 632 0102 50E0      		ldi r21,hi8(65536)
 633 0104 61E0      		ldi r22,hlo8(65536)
 634 0106 70E0      		ldi r23,hhi8(65536)
 635 0108 E40E      		add r14,r20
 636 010a F51E      		adc r15,r21
 637 010c 061F      		adc r16,r22
 638 010e 171F      		adc r17,r23
 639 0110 53E0      		ldi r21,lo8(3)
 640               	/* #APP */
 641               	 ;  737 "services.c" 1
 642 0112 F701      		movw r30, r14
 643 0114 0093 5B00 		sts  91, r16
 644 0118 5093 6800 		sts 104, r21
 645 011c E895      		spm
 646               		
 647               	 ;  0 "" 2
 648               	/* #NOAPP */
 649 011e 00C0      		rjmp .L75
 650               	.L76:
 651 0120 61E1      		ldi r22,lo8(17)
 652               	/* #APP */
 653               	 ;  739 "services.c" 1
 654 0122 6093 6800 		sts 104, r22
 655 0126 E895      		spm
 656               		
 657               	 ;  0 "" 2
 658               	/* #NOAPP */
 659               	.L75:
 660 0128 8091 6800 		lds r24,104
 661 012c 86FD      		sbrc r24,6
 662 012e 00C0      		rjmp .L76
 663 0130 8985      		ldd r24,Y+9
 664 0132 9A85      		ldd r25,Y+10
 665 0134 9887      		std Y+8,r25
 666 0136 8F83      		std Y+7,r24
 667 0138 EB82      		std Y+3,r14
 668 013a FC82      		std Y+4,r15
 669 013c 0D83      		std Y+5,r16
 670 013e 1E83      		std Y+6,r17
 671 0140 60E0      		ldi r22,lo8(0)
 672 0142 70E0      		ldi r23,hi8(0)
 673 0144 00C0      		rjmp .L77
 674               	.L78:
 675 0146 AF81      		ldd r26,Y+7
 676 0148 B885      		ldd r27,Y+8
 677 014a 1196      		adiw r26,1
 678 014c 3C90      		ld r3,X
 679 014e 1197      		sbiw r26,1
 680 0150 2224      		clr r2
 681 0152 BC91      		ld r27,X
 682 0154 F101      		movw r30,r2
 683 0156 EB0F      		add r30,r27
 684 0158 F11D      		adc r31,__zero_reg__
GAS LISTING C:\Users\hag\AppData\Local\Temp/ccHKG4gi.s 			page 13


 685 015a 9F01      		movw r18,r30
 686 015c 41E0      		ldi r20,lo8(1)
 687 015e 8B81      		ldd r24,Y+3
 688 0160 9C81      		ldd r25,Y+4
 689 0162 AD81      		ldd r26,Y+5
 690 0164 BE81      		ldd r27,Y+6
 691               	/* #APP */
 692               	 ;  741 "services.c" 1
 693 0166 0901      		movw  r0, r18
 694 0168 FC01      		movw r30, r24
 695 016a A093 5B00 		sts 91, r26
 696 016e 4093 6800 		sts 104, r20
 697 0172 E895      		spm
 698 0174 1124      		clr  r1
 699               		
 700               	 ;  0 "" 2
 701               	/* #NOAPP */
 702 0176 6E5F      		subi r22,lo8(-(2))
 703 0178 7F4F      		sbci r23,hi8(-(2))
 704 017a 8F81      		ldd r24,Y+7
 705 017c 9885      		ldd r25,Y+8
 706 017e 0296      		adiw r24,2
 707 0180 9887      		std Y+8,r25
 708 0182 8F83      		std Y+7,r24
 709 0184 2B81      		ldd r18,Y+3
 710 0186 3C81      		ldd r19,Y+4
 711 0188 4D81      		ldd r20,Y+5
 712 018a 5E81      		ldd r21,Y+6
 713 018c 2E5F      		subi r18,lo8(-(2))
 714 018e 3F4F      		sbci r19,hi8(-(2))
 715 0190 4F4F      		sbci r20,hlo8(-(2))
 716 0192 5F4F      		sbci r21,hhi8(-(2))
 717 0194 2B83      		std Y+3,r18
 718 0196 3C83      		std Y+4,r19
 719 0198 4D83      		std Y+5,r20
 720 019a 5E83      		std Y+6,r21
 721               	.L77:
 722 019c 6415      		cp r22,r4
 723 019e 7505      		cpc r23,r5
 724 01a0 04F0      		brlt .L78
 725 01a2 35E0      		ldi r19,lo8(5)
 726               	/* #APP */
 727               	 ;  742 "services.c" 1
 728 01a4 F701      		movw r30, r14
 729 01a6 0093 5B00 		sts 91, r16
 730 01aa 3093 6800 		sts 104, r19
 731 01ae E895      		spm
 732               		
 733               	 ;  0 "" 2
 734               	/* #NOAPP */
 735 01b0 00C0      		rjmp .L79
 736               	.L80:
 737 01b2 41E1      		ldi r20,lo8(17)
 738               	/* #APP */
 739               	 ;  744 "services.c" 1
 740 01b4 4093 6800 		sts 104, r20
 741 01b8 E895      		spm
GAS LISTING C:\Users\hag\AppData\Local\Temp/ccHKG4gi.s 			page 14


 742               		
 743               	 ;  0 "" 2
 744               	/* #NOAPP */
 745               	.L79:
 746 01ba 8091 6800 		lds r24,104
 747 01be 86FD      		sbrc r24,6
 748 01c0 00C0      		rjmp .L80
 749               	.L74:
 750 01c2 83E1      		ldi r24,lo8(19)
 751 01c4 0E94 0000 		call uart0_send
 752 01c8 8601      		movw r16,r12
 753 01ca 7501      		movw r14,r10
 754               	.L106:
 755 01cc E614      		cp r14,r6
 756 01ce F704      		cpc r15,r7
 757 01d0 0805      		cpc r16,r8
 758 01d2 1905      		cpc r17,r9
 759 01d4 00F4      		brsh .+2
 760 01d6 00C0      		rjmp .L81
 761 01d8 80EF      		ldi r24,lo8(-16)
 762 01da 0E94 0000 		call uart0_send
 763 01de 8985      		ldd r24,Y+9
 764 01e0 9A85      		ldd r25,Y+10
 765 01e2 66E0      		ldi r22,lo8(6)
 766 01e4 70E0      		ldi r23,hi8(6)
 767 01e6 0E94 0000 		call uart0_rec_buff
 768 01ea A985      		ldd r26,Y+9
 769 01ec BA85      		ldd r27,Y+10
 770 01ee 8C91      		ld r24,X
 771 01f0 8331      		cpi r24,lo8(19)
 772 01f2 01F4      		brne .L82
 773 01f4 1196      		adiw r26,1
 774 01f6 8C91      		ld r24,X
 775 01f8 1197      		sbiw r26,1
 776 01fa 8431      		cpi r24,lo8(20)
 777 01fc 01F4      		brne .L82
 778 01fe 1296      		adiw r26,2
 779 0200 8C91      		ld r24,X
 780 0202 1297      		sbiw r26,2
 781 0204 8531      		cpi r24,lo8(21)
 782 0206 01F4      		brne .L82
 783 0208 1396      		adiw r26,3
 784 020a 8C91      		ld r24,X
 785 020c 1397      		sbiw r26,3
 786 020e 8631      		cpi r24,lo8(22)
 787 0210 01F4      		brne .L82
 788 0212 1496      		adiw r26,4
 789 0214 8C91      		ld r24,X
 790 0216 1497      		sbiw r26,4
 791 0218 8731      		cpi r24,lo8(23)
 792 021a 01F4      		brne .L82
 793 021c 1596      		adiw r26,5
 794 021e 8C91      		ld r24,X
 795 0220 8931      		cpi r24,lo8(25)
 796 0222 01F4      		brne .+2
 797 0224 00C0      		rjmp .L83
 798               	.L82:
GAS LISTING C:\Users\hag\AppData\Local\Temp/ccHKG4gi.s 			page 15


 799 0226 81EF      		ldi r24,lo8(-15)
 800 0228 0E94 0000 		call uart0_send
 801               	/* #APP */
 802               	 ;  764 "services.c" 1
 803 022c 7894      		sei
 804               	 ;  0 "" 2
 805               	/* #NOAPP */
 806 022e 00C0      		rjmp .L69
 807               	.L90:
 808 0230 D401      		movw r26,r8
 809 0232 C301      		movw r24,r6
 810 0234 8E19      		sub r24,r14
 811 0236 9F09      		sbc r25,r15
 812 0238 A00B      		sbc r26,r16
 813 023a B10B      		sbc r27,r17
 814 023c 8150      		subi r24,lo8(257)
 815 023e 9140      		sbci r25,hi8(257)
 816 0240 A040      		sbci r26,hlo8(257)
 817 0242 B040      		sbci r27,hhi8(257)
 818 0244 00F0      		brlo .L84
 819 0246 412C      		mov r4,__zero_reg__
 820 0248 F1E0      		ldi r31,hi8(256)
 821 024a 5F2E      		mov r5,r31
 822 024c 00C0      		rjmp .L85
 823               	.L84:
 824 024e 2301      		movw r4,r6
 825 0250 4E18      		sub r4,r14
 826 0252 5F08      		sbc r5,r15
 827               	.L85:
 828 0254 8985      		ldd r24,Y+9
 829 0256 9A85      		ldd r25,Y+10
 830 0258 B201      		movw r22,r4
 831 025a 0E94 0000 		call uart0_rec_buff
 832 025e 5201      		movw r10,r4
 833 0260 CC24      		clr r12
 834 0262 B7FC      		sbrc r11,7
 835 0264 C094      		com r12
 836 0266 DC2C      		mov r13,r12
 837 0268 AE0C      		add r10,r14
 838 026a BF1C      		adc r11,r15
 839 026c C01E      		adc r12,r16
 840 026e D11E      		adc r13,r17
 841 0270 F1E0      		ldi r31,lo8(61441)
 842 0272 AF16      		cp r10,r31
 843 0274 F0EF      		ldi r31,hi8(61441)
 844 0276 BF06      		cpc r11,r31
 845 0278 F0E0      		ldi r31,hlo8(61441)
 846 027a CF06      		cpc r12,r31
 847 027c F0E0      		ldi r31,hhi8(61441)
 848 027e DF06      		cpc r13,r31
 849 0280 00F4      		brsh .L86
 850 0282 20E0      		ldi r18,lo8(65536)
 851 0284 30E0      		ldi r19,hi8(65536)
 852 0286 41E0      		ldi r20,hlo8(65536)
 853 0288 50E0      		ldi r21,hhi8(65536)
 854 028a E20E      		add r14,r18
 855 028c F31E      		adc r15,r19
GAS LISTING C:\Users\hag\AppData\Local\Temp/ccHKG4gi.s 			page 16


 856 028e 041F      		adc r16,r20
 857 0290 151F      		adc r17,r21
 858 0292 20E0      		ldi r18,lo8(0)
 859 0294 30E0      		ldi r19,hi8(0)
 860 0296 40E0      		ldi r20,hlo8(0)
 861 0298 50E0      		ldi r21,hhi8(0)
 862 029a 00C0      		rjmp .L87
 863               	.L89:
 864               	/* #APP */
 865               	 ;  783 "services.c" 1
 866 029c 0BBF      		out 59, r16
 867 029e F701      		movw r30, r14
 868 02a0 8791      		elpm r24, Z+
 869               		
 870               	 ;  0 "" 2
 871               	/* #NOAPP */
 872 02a2 E985      		ldd r30,Y+9
 873 02a4 FA85      		ldd r31,Y+10
 874 02a6 E20F      		add r30,r18
 875 02a8 F31F      		adc r31,r19
 876 02aa 9081      		ld r25,Z
 877 02ac 8913      		cpse r24,r25
 878 02ae 3324      		clr r3
 879               	.L88:
 880 02b0 0894      		sec
 881 02b2 E11C      		adc r14,__zero_reg__
 882 02b4 F11C      		adc r15,__zero_reg__
 883 02b6 011D      		adc r16,__zero_reg__
 884 02b8 111D      		adc r17,__zero_reg__
 885 02ba 2F5F      		subi r18,lo8(-(1))
 886 02bc 3F4F      		sbci r19,hi8(-(1))
 887 02be 4F4F      		sbci r20,hlo8(-(1))
 888 02c0 5F4F      		sbci r21,hhi8(-(1))
 889               	.L87:
 890 02c2 2415      		cp r18,r4
 891 02c4 3505      		cpc r19,r5
 892 02c6 04F0      		brlt .L89
 893               	.L86:
 894 02c8 83E1      		ldi r24,lo8(19)
 895 02ca 0E94 0000 		call uart0_send
 896 02ce 8601      		movw r16,r12
 897 02d0 7501      		movw r14,r10
 898               	.L107:
 899 02d2 E614      		cp r14,r6
 900 02d4 F704      		cpc r15,r7
 901 02d6 0805      		cpc r16,r8
 902 02d8 1905      		cpc r17,r9
 903 02da 00F4      		brsh .+2
 904 02dc 00C0      		rjmp .L90
 905 02de 3320      		tst r3
 906 02e0 01F0      		breq .L91
 907 02e2 80EF      		ldi r24,lo8(-16)
 908 02e4 0E94 0000 		call uart0_send
 909 02e8 8985      		ldd r24,Y+9
 910 02ea 9A85      		ldd r25,Y+10
 911 02ec 66E0      		ldi r22,lo8(6)
 912 02ee 70E0      		ldi r23,hi8(6)
GAS LISTING C:\Users\hag\AppData\Local\Temp/ccHKG4gi.s 			page 17


 913 02f0 0E94 0000 		call uart0_rec_buff
 914 02f4 A985      		ldd r26,Y+9
 915 02f6 BA85      		ldd r27,Y+10
 916 02f8 8C91      		ld r24,X
 917 02fa 8331      		cpi r24,lo8(19)
 918 02fc 01F4      		brne .L93
 919 02fe 00C0      		rjmp .L113
 920               	.L91:
 921 0300 81EF      		ldi r24,lo8(-15)
 922 0302 0E94 0000 		call uart0_send
 923               	/* #APP */
 924               	 ;  794 "services.c" 1
 925 0306 7894      		sei
 926               	 ;  0 "" 2
 927               	/* #NOAPP */
 928 0308 00C0      		rjmp .L69
 929               	.L113:
 930 030a E985      		ldd r30,Y+9
 931 030c FA85      		ldd r31,Y+10
 932 030e 8181      		ldd r24,Z+1
 933 0310 8431      		cpi r24,lo8(20)
 934 0312 01F4      		brne .L93
 935 0314 8281      		ldd r24,Z+2
 936 0316 8531      		cpi r24,lo8(21)
 937 0318 01F4      		brne .L93
 938 031a 8381      		ldd r24,Z+3
 939 031c 8631      		cpi r24,lo8(22)
 940 031e 01F4      		brne .L93
 941 0320 8481      		ldd r24,Z+4
 942 0322 8731      		cpi r24,lo8(23)
 943 0324 01F4      		brne .L93
 944 0326 8581      		ldd r24,Z+5
 945 0328 8032      		cpi r24,lo8(32)
 946 032a 01F4      		brne .+2
 947 032c 00C0      		rjmp .L94
 948               	.L93:
 949 032e 81EF      		ldi r24,lo8(-15)
 950 0330 0E94 0000 		call uart0_send
 951               	/* #APP */
 952               	 ;  811 "services.c" 1
 953 0334 7894      		sei
 954               	 ;  0 "" 2
 955               	/* #NOAPP */
 956 0336 00C0      		rjmp .L69
 957               	.L95:
 958               	/* #APP */
 959               	 ;  820 "services.c" 1
 960 0338 4BBF      		out 59, r20
 961 033a F901      		movw r30, r18
 962 033c 8791      		elpm r24, Z+
 963               		
 964               	 ;  0 "" 2
 965               	/* #NOAPP */
 966 033e FB01      		movw r30,r22
 967 0340 8193      		st Z+,r24
 968 0342 BF01      		movw r22,r30
 969 0344 2F5F      		subi r18,lo8(-(1))
GAS LISTING C:\Users\hag\AppData\Local\Temp/ccHKG4gi.s 			page 18


 970 0346 3F4F      		sbci r19,hi8(-(1))
 971 0348 4F4F      		sbci r20,hlo8(-(1))
 972 034a 5F4F      		sbci r21,hhi8(-(1))
 973 034c 2E15      		cp r18,r14
 974 034e 3F05      		cpc r19,r15
 975 0350 4007      		cpc r20,r16
 976 0352 5107      		cpc r21,r17
 977 0354 01F4      		brne .L95
 978               	/* #APP */
 979               	 ;  822 "services.c" 1
 980 0356 F501      		movw r30, r10
 981 0358 C092 5B00 		sts  91, r12
 982 035c 4092 6800 		sts 104, r4
 983 0360 E895      		spm
 984               		
 985               	 ;  0 "" 2
 986               	/* #NOAPP */
 987 0362 00C0      		rjmp .L96
 988               	.L97:
 989               	/* #APP */
 990               	 ;  824 "services.c" 1
 991 0364 7092 6800 		sts 104, r7
 992 0368 E895      		spm
 993               		
 994               	 ;  0 "" 2
 995               	/* #NOAPP */
 996               	.L96:
 997 036a 8091 6800 		lds r24,104
 998 036e 86FD      		sbrc r24,6
 999 0370 00C0      		rjmp .L97
 1000 0372 EE24      		clr r14
 1001 0374 FF24      		clr r15
 1002 0376 8701      		movw r16,r14
 1003               	.L98:
 1004 0378 A801      		movw r20,r16
 1005 037a 9701      		movw r18,r14
 1006 037c 2A0D      		add r18,r10
 1007 037e 3B1D      		adc r19,r11
 1008 0380 4C1D      		adc r20,r12
 1009 0382 5D1D      		adc r21,r13
 1010 0384 1196      		adiw r26,1
 1011 0386 9C90      		ld r9,X
 1012 0388 1197      		sbiw r26,1
 1013 038a 8824      		clr r8
 1014 038c 8C91      		ld r24,X
 1015 038e B401      		movw r22,r8
 1016 0390 680F      		add r22,r24
 1017 0392 711D      		adc r23,__zero_reg__
 1018               	/* #APP */
 1019               	 ;  826 "services.c" 1
 1020 0394 0B01      		movw  r0, r22
 1021 0396 F901      		movw r30, r18
 1022 0398 4093 5B00 		sts 91, r20
 1023 039c 5092 6800 		sts 104, r5
 1024 03a0 E895      		spm
 1025 03a2 1124      		clr  r1
 1026               		
GAS LISTING C:\Users\hag\AppData\Local\Temp/ccHKG4gi.s 			page 19


 1027               	 ;  0 "" 2
 1028               	/* #NOAPP */
 1029 03a4 1296      		adiw r26,2
 1030 03a6 22E0      		ldi r18,lo8(2)
 1031 03a8 30E0      		ldi r19,hi8(2)
 1032 03aa 40E0      		ldi r20,hlo8(2)
 1033 03ac 50E0      		ldi r21,hhi8(2)
 1034 03ae E20E      		add r14,r18
 1035 03b0 F31E      		adc r15,r19
 1036 03b2 041F      		adc r16,r20
 1037 03b4 151F      		adc r17,r21
 1038 03b6 30E0      		ldi r19,lo8(256)
 1039 03b8 E316      		cp r14,r19
 1040 03ba 31E0      		ldi r19,hi8(256)
 1041 03bc F306      		cpc r15,r19
 1042 03be 30E0      		ldi r19,hlo8(256)
 1043 03c0 0307      		cpc r16,r19
 1044 03c2 30E0      		ldi r19,hhi8(256)
 1045 03c4 1307      		cpc r17,r19
 1046 03c6 01F4      		brne .L98
 1047               	/* #APP */
 1048               	 ;  827 "services.c" 1
 1049 03c8 F501      		movw r30, r10
 1050 03ca C092 5B00 		sts 91, r12
 1051 03ce 6092 6800 		sts 104, r6
 1052 03d2 E895      		spm
 1053               		
 1054               	 ;  0 "" 2
 1055               	/* #NOAPP */
 1056 03d4 00C0      		rjmp .L99
 1057               	.L100:
 1058               	/* #APP */
 1059               	 ;  829 "services.c" 1
 1060 03d6 7092 6800 		sts 104, r7
 1061 03da E895      		spm
 1062               		
 1063               	 ;  0 "" 2
 1064               	/* #NOAPP */
 1065               	.L99:
 1066 03dc 8091 6800 		lds r24,104
 1067 03e0 86FD      		sbrc r24,6
 1068 03e2 00C0      		rjmp .L100
 1069 03e4 40E0      		ldi r20,lo8(256)
 1070 03e6 51E0      		ldi r21,hi8(256)
 1071 03e8 60E0      		ldi r22,hlo8(256)
 1072 03ea 70E0      		ldi r23,hhi8(256)
 1073 03ec A40E      		add r10,r20
 1074 03ee B51E      		adc r11,r21
 1075 03f0 C61E      		adc r12,r22
 1076 03f2 D71E      		adc r13,r23
 1077 03f4 50E0      		ldi r21,lo8(61440)
 1078 03f6 A516      		cp r10,r21
 1079 03f8 50EF      		ldi r21,hi8(61440)
 1080 03fa B506      		cpc r11,r21
 1081 03fc 50E0      		ldi r21,hlo8(61440)
 1082 03fe C506      		cpc r12,r21
 1083 0400 50E0      		ldi r21,hhi8(61440)
GAS LISTING C:\Users\hag\AppData\Local\Temp/ccHKG4gi.s 			page 20


 1084 0402 D506      		cpc r13,r21
 1085 0404 01F0      		breq .L101
 1086               	.L108:
 1087 0406 A601      		movw r20,r12
 1088 0408 9501      		movw r18,r10
 1089 040a 2050      		subi r18,lo8(-(65536))
 1090 040c 3040      		sbci r19,hi8(-(65536))
 1091 040e 4F4F      		sbci r20,hlo8(-(65536))
 1092 0410 5F4F      		sbci r21,hhi8(-(65536))
 1093 0412 A985      		ldd r26,Y+9
 1094 0414 BA85      		ldd r27,Y+10
 1095 0416 BD01      		movw r22,r26
 1096 0418 E12C      		mov r14,__zero_reg__
 1097 041a E1E0      		ldi r30,hi8(65792)
 1098 041c FE2E      		mov r15,r30
 1099 041e E1E0      		ldi r30,hlo8(65792)
 1100 0420 0E2F      		mov r16,r30
 1101 0422 112D      		mov r17,__zero_reg__
 1102 0424 EA0C      		add r14,r10
 1103 0426 FB1C      		adc r15,r11
 1104 0428 0C1D      		adc r16,r12
 1105 042a 1D1D      		adc r17,r13
 1106 042c 00C0      		rjmp .L95
 1107               	.L101:
 1108 042e 85E1      		ldi r24,lo8(21)
 1109 0430 0E94 0000 		call uart0_send
 1110 0434 20E0      		ldi r18,lo8(65536)
 1111 0436 30E0      		ldi r19,hi8(65536)
 1112 0438 41E0      		ldi r20,hlo8(65536)
 1113 043a 50E0      		ldi r21,hhi8(65536)
 1114 043c 63E0      		ldi r22,lo8(3)
 1115 043e 91E1      		ldi r25,lo8(17)
 1116               	.L104:
 1117               	/* #APP */
 1118               	 ;  838 "services.c" 1
 1119 0440 F901      		movw r30, r18
 1120 0442 4093 5B00 		sts  91, r20
 1121 0446 6093 6800 		sts 104, r22
 1122 044a E895      		spm
 1123               		
 1124               	 ;  0 "" 2
 1125               	/* #NOAPP */
 1126 044c 00C0      		rjmp .L102
 1127               	.L103:
 1128               	/* #APP */
 1129               	 ;  840 "services.c" 1
 1130 044e 9093 6800 		sts 104, r25
 1131 0452 E895      		spm
 1132               		
 1133               	 ;  0 "" 2
 1134               	/* #NOAPP */
 1135               	.L102:
 1136 0454 8091 6800 		lds r24,104
 1137 0458 86FD      		sbrc r24,6
 1138 045a 00C0      		rjmp .L103
 1139 045c 2050      		subi r18,lo8(-(256))
 1140 045e 3F4F      		sbci r19,hi8(-(256))
GAS LISTING C:\Users\hag\AppData\Local\Temp/ccHKG4gi.s 			page 21


 1141 0460 4F4F      		sbci r20,hlo8(-(256))
 1142 0462 5F4F      		sbci r21,hhi8(-(256))
 1143 0464 2030      		cpi r18,lo8(126976)
 1144 0466 70EF      		ldi r23,hi8(126976)
 1145 0468 3707      		cpc r19,r23
 1146 046a 71E0      		ldi r23,hlo8(126976)
 1147 046c 4707      		cpc r20,r23
 1148 046e 70E0      		ldi r23,hhi8(126976)
 1149 0470 5707      		cpc r21,r23
 1150 0472 01F4      		brne .L104
 1151 0474 86E1      		ldi r24,lo8(22)
 1152 0476 0E94 0000 		call uart0_send
 1153 047a 28E0      		ldi r18,lo8(8)
 1154 047c 88E1      		ldi r24,lo8(24)
 1155 047e 90E0      		ldi r25,hi8(24)
 1156               	/* #APP */
 1157               	 ;  846 "services.c" 1
 1158 0480 0FB6      		in __tmp_reg__,__SREG__
 1159 0482 F894      		cli
 1160 0484 A895      		wdr
 1161 0486 81BD      		out 33,r24
 1162 0488 0FBE      		out __SREG__,__tmp_reg__
 1163 048a 21BD      		out 33,r18
 1164               	 ;  0 "" 2
 1165               	/* #NOAPP */
 1166               	.L105:
 1167 048c 00C0      		rjmp .L105
 1168               	.L69:
 1169 048e 80E0      		ldi r24,lo8(0)
 1170               	/* epilogue start */
 1171 0490 2A96      		adiw r28,10
 1172 0492 0FB6      		in __tmp_reg__,__SREG__
 1173 0494 F894      		cli
 1174 0496 DEBF      		out __SP_H__,r29
 1175 0498 0FBE      		out __SREG__,__tmp_reg__
 1176 049a CDBF      		out __SP_L__,r28
 1177 049c CF91      		pop r28
 1178 049e DF91      		pop r29
 1179 04a0 1F91      		pop r17
 1180 04a2 0F91      		pop r16
 1181 04a4 FF90      		pop r15
 1182 04a6 EF90      		pop r14
 1183 04a8 DF90      		pop r13
 1184 04aa CF90      		pop r12
 1185 04ac BF90      		pop r11
 1186 04ae AF90      		pop r10
 1187 04b0 9F90      		pop r9
 1188 04b2 8F90      		pop r8
 1189 04b4 7F90      		pop r7
 1190 04b6 6F90      		pop r6
 1191 04b8 5F90      		pop r5
 1192 04ba 4F90      		pop r4
 1193 04bc 3F90      		pop r3
 1194 04be 2F90      		pop r2
 1195 04c0 0895      		ret
 1196               	.L68:
 1197 04c2 80EF      		ldi r24,lo8(-16)
GAS LISTING C:\Users\hag\AppData\Local\Temp/ccHKG4gi.s 			page 22


 1198 04c4 0E94 0000 		call uart0_send
 1199 04c8 8985      		ldd r24,Y+9
 1200 04ca 9A85      		ldd r25,Y+10
 1201 04cc 64E0      		ldi r22,lo8(4)
 1202 04ce 70E0      		ldi r23,hi8(4)
 1203 04d0 0E94 0000 		call uart0_rec_buff
 1204 04d4 A985      		ldd r26,Y+9
 1205 04d6 BA85      		ldd r27,Y+10
 1206 04d8 1396      		adiw r26,3
 1207 04da 2C91      		ld r18,X
 1208 04dc 1397      		sbiw r26,3
 1209 04de 8C91      		ld r24,X
 1210 04e0 90E0      		ldi r25,lo8(0)
 1211 04e2 A0E0      		ldi r26,lo8(0)
 1212 04e4 B0E0      		ldi r27,hi8(0)
 1213 04e6 982E      		mov r9,r24
 1214 04e8 8824      		clr r8
 1215 04ea 7724      		clr r7
 1216 04ec 6624      		clr r6
 1217 04ee 620E      		add r6,r18
 1218 04f0 711C      		adc r7,__zero_reg__
 1219 04f2 811C      		adc r8,__zero_reg__
 1220 04f4 911C      		adc r9,__zero_reg__
 1221 04f6 E985      		ldd r30,Y+9
 1222 04f8 FA85      		ldd r31,Y+10
 1223 04fa 8181      		ldd r24,Z+1
 1224 04fc 90E0      		ldi r25,lo8(0)
 1225 04fe A0E0      		ldi r26,lo8(0)
 1226 0500 B0E0      		ldi r27,hi8(0)
 1227 0502 DC01      		movw r26,r24
 1228 0504 9927      		clr r25
 1229 0506 8827      		clr r24
 1230 0508 680E      		add r6,r24
 1231 050a 791E      		adc r7,r25
 1232 050c 8A1E      		adc r8,r26
 1233 050e 9B1E      		adc r9,r27
 1234 0510 8281      		ldd r24,Z+2
 1235 0512 90E0      		ldi r25,lo8(0)
 1236 0514 A0E0      		ldi r26,lo8(0)
 1237 0516 B0E0      		ldi r27,hi8(0)
 1238 0518 BA2F      		mov r27,r26
 1239 051a A92F      		mov r26,r25
 1240 051c 982F      		mov r25,r24
 1241 051e 8827      		clr r24
 1242 0520 680E      		add r6,r24
 1243 0522 791E      		adc r7,r25
 1244 0524 8A1E      		adc r8,r26
 1245 0526 9B1E      		adc r9,r27
 1246 0528 80EF      		ldi r24,lo8(-16)
 1247 052a 0E94 0000 		call uart0_send
 1248 052e EE24      		clr r14
 1249 0530 FF24      		clr r15
 1250 0532 8701      		movw r16,r14
 1251 0534 00C0      		rjmp .L106
 1252               	.L83:
 1253 0536 80EF      		ldi r24,lo8(-16)
 1254 0538 0E94 0000 		call uart0_send
GAS LISTING C:\Users\hag\AppData\Local\Temp/ccHKG4gi.s 			page 23


 1255 053c EE24      		clr r14
 1256 053e FF24      		clr r15
 1257 0540 8701      		movw r16,r14
 1258 0542 3324      		clr r3
 1259 0544 3394      		inc r3
 1260 0546 00C0      		rjmp .L107
 1261               	.L94:
 1262 0548 80EF      		ldi r24,lo8(-16)
 1263 054a 0E94 0000 		call uart0_send
 1264 054e AA24      		clr r10
 1265 0550 BB24      		clr r11
 1266 0552 6501      		movw r12,r10
 1267 0554 23E0      		ldi r18,lo8(3)
 1268 0556 422E      		mov r4,r18
 1269 0558 91E1      		ldi r25,lo8(17)
 1270 055a 792E      		mov r7,r25
 1271 055c 5524      		clr r5
 1272 055e 5394      		inc r5
 1273 0560 85E0      		ldi r24,lo8(5)
 1274 0562 682E      		mov r6,r24
 1275 0564 00C0      		rjmp .L108
 1276               		.size	boot, .-boot
 1277               		.section	.text.flash_boot,"ax",@progbits
 1278               	.global	flash_boot
 1279               		.type	flash_boot, @function
 1280               	flash_boot:
 1281 0000 2F92      		push r2
 1282 0002 3F92      		push r3
 1283 0004 4F92      		push r4
 1284 0006 5F92      		push r5
 1285 0008 6F92      		push r6
 1286 000a 7F92      		push r7
 1287 000c 8F92      		push r8
 1288 000e 9F92      		push r9
 1289 0010 AF92      		push r10
 1290 0012 BF92      		push r11
 1291 0014 CF92      		push r12
 1292 0016 DF92      		push r13
 1293 0018 EF92      		push r14
 1294 001a FF92      		push r15
 1295 001c 0F93      		push r16
 1296 001e 1F93      		push r17
 1297 0020 DF93      		push r29
 1298 0022 CF93      		push r28
 1299 0024 00D0      		rcall .
 1300 0026 00D0      		rcall .
 1301 0028 CDB7      		in r28,__SP_L__
 1302 002a DEB7      		in r29,__SP_H__
 1303               	/* prologue: function */
 1304               	/* frame size = 4 */
 1305 002c 4C01      		movw r8,r24
 1306               	/* #APP */
 1307               	 ;  582 "services.c" 1
 1308 002e F894      		cli
 1309               	 ;  0 "" 2
 1310               	/* #NOAPP */
 1311 0030 80EF      		ldi r24,lo8(-16)
GAS LISTING C:\Users\hag\AppData\Local\Temp/ccHKG4gi.s 			page 24


 1312 0032 0E94 0000 		call uart0_send_boot
 1313 0036 C401      		movw r24,r8
 1314 0038 66E0      		ldi r22,lo8(6)
 1315 003a 70E0      		ldi r23,hi8(6)
 1316 003c 0E94 0000 		call uart0_rec_buff_boot
 1317 0040 D401      		movw r26,r8
 1318 0042 8C91      		ld r24,X
 1319 0044 8331      		cpi r24,lo8(19)
 1320 0046 01F4      		brne .L115
 1321 0048 1196      		adiw r26,1
 1322 004a 8C91      		ld r24,X
 1323 004c 1197      		sbiw r26,1
 1324 004e 8431      		cpi r24,lo8(20)
 1325 0050 01F4      		brne .L115
 1326 0052 1296      		adiw r26,2
 1327 0054 8C91      		ld r24,X
 1328 0056 1297      		sbiw r26,2
 1329 0058 8531      		cpi r24,lo8(21)
 1330 005a 01F4      		brne .L115
 1331 005c 1396      		adiw r26,3
 1332 005e 8C91      		ld r24,X
 1333 0060 1397      		sbiw r26,3
 1334 0062 8631      		cpi r24,lo8(22)
 1335 0064 01F4      		brne .L115
 1336 0066 1496      		adiw r26,4
 1337 0068 8C91      		ld r24,X
 1338 006a 1497      		sbiw r26,4
 1339 006c 8731      		cpi r24,lo8(23)
 1340 006e 01F4      		brne .L115
 1341 0070 1596      		adiw r26,5
 1342 0072 8C91      		ld r24,X
 1343 0074 8831      		cpi r24,lo8(24)
 1344 0076 01F0      		breq .L116
 1345               	.L115:
 1346 0078 81EF      		ldi r24,lo8(-15)
 1347 007a 0E94 0000 		call uart0_send_boot
 1348               	/* #APP */
 1349               	 ;  591 "services.c" 1
 1350 007e 7894      		sei
 1351               	 ;  0 "" 2
 1352               	/* #NOAPP */
 1353 0080 00C0      		rjmp .L143
 1354               	.L116:
 1355 0082 80EF      		ldi r24,lo8(-16)
 1356 0084 0E94 0000 		call uart0_send_boot
 1357 0088 C401      		movw r24,r8
 1358 008a 62E0      		ldi r22,lo8(2)
 1359 008c 70E0      		ldi r23,hi8(2)
 1360 008e 0E94 0000 		call uart0_rec_buff_boot
 1361 0092 F401      		movw r30,r8
 1362 0094 2181      		ldd r18,Z+1
 1363 0096 9081      		ld r25,Z
 1364 0098 80E0      		ldi r24,lo8(0)
 1365 009a AC01      		movw r20,r24
 1366 009c 420F      		add r20,r18
 1367 009e 511D      		adc r21,__zero_reg__
 1368 00a0 5A83      		std Y+2,r21
GAS LISTING C:\Users\hag\AppData\Local\Temp/ccHKG4gi.s 			page 25


 1369 00a2 4983      		std Y+1,r20
 1370 00a4 80EF      		ldi r24,lo8(-16)
 1371 00a6 0E94 0000 		call uart0_send_boot
 1372 00aa 6624      		clr r6
 1373 00ac 7724      		clr r7
 1374 00ae 00C0      		rjmp .L118
 1375               	.L129:
 1376 00b0 C980      		ldd r12,Y+1
 1377 00b2 DA80      		ldd r13,Y+2
 1378 00b4 C618      		sub r12,r6
 1379 00b6 D708      		sbc r13,r7
 1380 00b8 51E0      		ldi r21,lo8(257)
 1381 00ba C516      		cp r12,r21
 1382 00bc 51E0      		ldi r21,hi8(257)
 1383 00be D506      		cpc r13,r21
 1384 00c0 00F0      		brlo .L119
 1385 00c2 C12C      		mov r12,__zero_reg__
 1386 00c4 11E0      		ldi r17,hi8(256)
 1387 00c6 D12E      		mov r13,r17
 1388               	.L119:
 1389 00c8 C401      		movw r24,r8
 1390 00ca B601      		movw r22,r12
 1391 00cc 0E94 0000 		call uart0_rec_buff_boot
 1392 00d0 F401      		movw r30,r8
 1393 00d2 EC0D      		add r30,r12
 1394 00d4 FD1D      		adc r31,r13
 1395 00d6 C601      		movw r24,r12
 1396 00d8 00C0      		rjmp .L120
 1397               	.L121:
 1398 00da AFEF      		ldi r26,lo8(-1)
 1399 00dc A193      		st Z+,r26
 1400 00de 0196      		adiw r24,1
 1401               	.L120:
 1402 00e0 B1E0      		ldi r27,hi8(256)
 1403 00e2 8030      		cpi r24,lo8(256)
 1404 00e4 9B07      		cpc r25,r27
 1405 00e6 01F4      		brne .L121
 1406 00e8 1601      		movw r2,r12
 1407 00ea 260C      		add r2,r6
 1408 00ec 371C      		adc r3,r7
 1409 00ee E1E0      		ldi r30,lo8(4097)
 1410 00f0 2E16      		cp r2,r30
 1411 00f2 E0E1      		ldi r30,hi8(4097)
 1412 00f4 3E06      		cpc r3,r30
 1413 00f6 00F0      		brlo .+2
 1414 00f8 00C0      		rjmp .L122
 1415 00fa 7301      		movw r14,r6
 1416 00fc 00E0      		ldi r16,lo8(0)
 1417 00fe 10E0      		ldi r17,hi8(0)
 1418 0100 20E0      		ldi r18,lo8(126976)
 1419 0102 30EF      		ldi r19,hi8(126976)
 1420 0104 41E0      		ldi r20,hlo8(126976)
 1421 0106 50E0      		ldi r21,hhi8(126976)
 1422 0108 E20E      		add r14,r18
 1423 010a F31E      		adc r15,r19
 1424 010c 041F      		adc r16,r20
 1425 010e 151F      		adc r17,r21
GAS LISTING C:\Users\hag\AppData\Local\Temp/ccHKG4gi.s 			page 26


 1426 0110 33E0      		ldi r19,lo8(3)
 1427               	/* #APP */
 1428               	 ;  617 "services.c" 1
 1429 0112 F701      		movw r30, r14
 1430 0114 0093 5B00 		sts  91, r16
 1431 0118 3093 6800 		sts 104, r19
 1432 011c E895      		spm
 1433               		
 1434               	 ;  0 "" 2
 1435               	/* #NOAPP */
 1436 011e 00C0      		rjmp .L123
 1437               	.L124:
 1438 0120 41E1      		ldi r20,lo8(17)
 1439               	/* #APP */
 1440               	 ;  619 "services.c" 1
 1441 0122 4093 6800 		sts 104, r20
 1442 0126 E895      		spm
 1443               		
 1444               	 ;  0 "" 2
 1445               	/* #NOAPP */
 1446               	.L123:
 1447 0128 8091 6800 		lds r24,104
 1448 012c 86FD      		sbrc r24,6
 1449 012e 00C0      		rjmp .L124
 1450 0130 5401      		movw r10,r8
 1451 0132 1C82      		std Y+4,__zero_reg__
 1452 0134 1B82      		std Y+3,__zero_reg__
 1453 0136 A301      		movw r20,r6
 1454 0138 60E0      		ldi r22,lo8(0)
 1455 013a 70E0      		ldi r23,hi8(0)
 1456 013c 4050      		subi r20,lo8(-(126976))
 1457 013e 5041      		sbci r21,hi8(-(126976))
 1458 0140 6E4F      		sbci r22,hlo8(-(126976))
 1459 0142 7F4F      		sbci r23,hhi8(-(126976))
 1460 0144 00C0      		rjmp .L125
 1461               	.L126:
 1462 0146 EB81      		ldd r30,Y+3
 1463 0148 FC81      		ldd r31,Y+4
 1464 014a CF01      		movw r24,r30
 1465 014c A0E0      		ldi r26,lo8(0)
 1466 014e B0E0      		ldi r27,hi8(0)
 1467 0150 840F      		add r24,r20
 1468 0152 951F      		adc r25,r21
 1469 0154 A61F      		adc r26,r22
 1470 0156 B71F      		adc r27,r23
 1471 0158 F501      		movw r30,r10
 1472 015a 5180      		ldd r5,Z+1
 1473 015c 4424      		clr r4
 1474 015e 2081      		ld r18,Z
 1475 0160 F201      		movw r30,r4
 1476 0162 E20F      		add r30,r18
 1477 0164 F11D      		adc r31,__zero_reg__
 1478 0166 9F01      		movw r18,r30
 1479 0168 7724      		clr r7
 1480 016a 7394      		inc r7
 1481               	/* #APP */
 1482               	 ;  621 "services.c" 1
GAS LISTING C:\Users\hag\AppData\Local\Temp/ccHKG4gi.s 			page 27


 1483 016c 0901      		movw  r0, r18
 1484 016e FC01      		movw r30, r24
 1485 0170 A093 5B00 		sts 91, r26
 1486 0174 7092 6800 		sts 104, r7
 1487 0178 E895      		spm
 1488 017a 1124      		clr  r1
 1489               		
 1490               	 ;  0 "" 2
 1491               	/* #NOAPP */
 1492 017c 2B81      		ldd r18,Y+3
 1493 017e 3C81      		ldd r19,Y+4
 1494 0180 2E5F      		subi r18,lo8(-(2))
 1495 0182 3F4F      		sbci r19,hi8(-(2))
 1496 0184 3C83      		std Y+4,r19
 1497 0186 2B83      		std Y+3,r18
 1498 0188 82E0      		ldi r24,lo8(2)
 1499 018a 90E0      		ldi r25,hi8(2)
 1500 018c A80E      		add r10,r24
 1501 018e B91E      		adc r11,r25
 1502               	.L125:
 1503 0190 AB81      		ldd r26,Y+3
 1504 0192 BC81      		ldd r27,Y+4
 1505 0194 AC15      		cp r26,r12
 1506 0196 BD05      		cpc r27,r13
 1507 0198 00F0      		brlo .L126
 1508 019a B5E0      		ldi r27,lo8(5)
 1509               	/* #APP */
 1510               	 ;  622 "services.c" 1
 1511 019c F701      		movw r30, r14
 1512 019e 0093 5B00 		sts 91, r16
 1513 01a2 B093 6800 		sts 104, r27
 1514 01a6 E895      		spm
 1515               		
 1516               	 ;  0 "" 2
 1517               	/* #NOAPP */
 1518 01a8 00C0      		rjmp .L127
 1519               	.L128:
 1520 01aa E1E1      		ldi r30,lo8(17)
 1521               	/* #APP */
 1522               	 ;  624 "services.c" 1
 1523 01ac E093 6800 		sts 104, r30
 1524 01b0 E895      		spm
 1525               		
 1526               	 ;  0 "" 2
 1527               	/* #NOAPP */
 1528               	.L127:
 1529 01b2 8091 6800 		lds r24,104
 1530 01b6 86FD      		sbrc r24,6
 1531 01b8 00C0      		rjmp .L128
 1532               	.L122:
 1533 01ba 83E1      		ldi r24,lo8(19)
 1534 01bc 0E94 0000 		call uart0_send_boot
 1535 01c0 3101      		movw r6,r2
 1536               	.L118:
 1537 01c2 2981      		ldd r18,Y+1
 1538 01c4 3A81      		ldd r19,Y+2
 1539 01c6 6216      		cp r6,r18
GAS LISTING C:\Users\hag\AppData\Local\Temp/ccHKG4gi.s 			page 28


 1540 01c8 7306      		cpc r7,r19
 1541 01ca 00F4      		brsh .+2
 1542 01cc 00C0      		rjmp .L129
 1543 01ce 80EF      		ldi r24,lo8(-16)
 1544 01d0 0E94 0000 		call uart0_send_boot
 1545 01d4 C401      		movw r24,r8
 1546 01d6 66E0      		ldi r22,lo8(6)
 1547 01d8 70E0      		ldi r23,hi8(6)
 1548 01da 0E94 0000 		call uart0_rec_buff_boot
 1549 01de D401      		movw r26,r8
 1550 01e0 8C91      		ld r24,X
 1551 01e2 8331      		cpi r24,lo8(19)
 1552 01e4 01F4      		brne .L130
 1553 01e6 1196      		adiw r26,1
 1554 01e8 8C91      		ld r24,X
 1555 01ea 1197      		sbiw r26,1
 1556 01ec 8431      		cpi r24,lo8(20)
 1557 01ee 01F4      		brne .L130
 1558 01f0 1296      		adiw r26,2
 1559 01f2 8C91      		ld r24,X
 1560 01f4 1297      		sbiw r26,2
 1561 01f6 8531      		cpi r24,lo8(21)
 1562 01f8 01F4      		brne .L130
 1563 01fa 1396      		adiw r26,3
 1564 01fc 8C91      		ld r24,X
 1565 01fe 1397      		sbiw r26,3
 1566 0200 8631      		cpi r24,lo8(22)
 1567 0202 01F4      		brne .L130
 1568 0204 1496      		adiw r26,4
 1569 0206 8C91      		ld r24,X
 1570 0208 1497      		sbiw r26,4
 1571 020a 8731      		cpi r24,lo8(23)
 1572 020c 01F4      		brne .L130
 1573 020e 1596      		adiw r26,5
 1574 0210 8C91      		ld r24,X
 1575 0212 8931      		cpi r24,lo8(25)
 1576 0214 01F0      		breq .L131
 1577               	.L130:
 1578 0216 81EF      		ldi r24,lo8(-15)
 1579 0218 0E94 0000 		call uart0_send_boot
 1580               	/* #APP */
 1581               	 ;  636 "services.c" 1
 1582 021c 7894      		sei
 1583               	 ;  0 "" 2
 1584               	/* #NOAPP */
 1585 021e 00C0      		rjmp .L143
 1586               	.L131:
 1587 0220 80EF      		ldi r24,lo8(-16)
 1588 0222 0E94 0000 		call uart0_send_boot
 1589 0226 00E0      		ldi r16,lo8(0)
 1590 0228 10E0      		ldi r17,hi8(0)
 1591 022a BB24      		clr r11
 1592 022c B394      		inc r11
 1593 022e 00C0      		rjmp .L132
 1594               	.L138:
 1595 0230 6980      		ldd r6,Y+1
 1596 0232 7A80      		ldd r7,Y+2
GAS LISTING C:\Users\hag\AppData\Local\Temp/ccHKG4gi.s 			page 29


 1597 0234 601A      		sub r6,r16
 1598 0236 710A      		sbc r7,r17
 1599 0238 B1E0      		ldi r27,lo8(257)
 1600 023a 6B16      		cp r6,r27
 1601 023c B1E0      		ldi r27,hi8(257)
 1602 023e 7B06      		cpc r7,r27
 1603 0240 00F0      		brlo .L133
 1604 0242 612C      		mov r6,__zero_reg__
 1605 0244 B1E0      		ldi r27,hi8(256)
 1606 0246 7B2E      		mov r7,r27
 1607               	.L133:
 1608 0248 C401      		movw r24,r8
 1609 024a B301      		movw r22,r6
 1610 024c 0E94 0000 		call uart0_rec_buff_boot
 1611 0250 6301      		movw r12,r6
 1612 0252 C00E      		add r12,r16
 1613 0254 D11E      		adc r13,r17
 1614 0256 E1E0      		ldi r30,lo8(4097)
 1615 0258 CE16      		cp r12,r30
 1616 025a E0E1      		ldi r30,hi8(4097)
 1617 025c DE06      		cpc r13,r30
 1618 025e 00F4      		brsh .L134
 1619 0260 9801      		movw r18,r16
 1620 0262 40E0      		ldi r20,lo8(0)
 1621 0264 50E0      		ldi r21,hi8(0)
 1622 0266 2050      		subi r18,lo8(-(126976))
 1623 0268 3041      		sbci r19,hi8(-(126976))
 1624 026a 4E4F      		sbci r20,hlo8(-(126976))
 1625 026c 5F4F      		sbci r21,hhi8(-(126976))
 1626 026e EE24      		clr r14
 1627 0270 FF24      		clr r15
 1628 0272 8701      		movw r16,r14
 1629 0274 00C0      		rjmp .L135
 1630               	.L137:
 1631               	/* #APP */
 1632               	 ;  656 "services.c" 1
 1633 0276 4BBF      		out 59, r20
 1634 0278 F901      		movw r30, r18
 1635 027a 9791      		elpm r25, Z+
 1636               		
 1637               	 ;  0 "" 2
 1638               	/* #NOAPP */
 1639 027c A80D      		add r26,r8
 1640 027e B91D      		adc r27,r9
 1641 0280 8C91      		ld r24,X
 1642 0282 9813      		cpse r25,r24
 1643 0284 BB24      		clr r11
 1644               	.L136:
 1645 0286 2F5F      		subi r18,lo8(-(1))
 1646 0288 3F4F      		sbci r19,hi8(-(1))
 1647 028a 4F4F      		sbci r20,hlo8(-(1))
 1648 028c 5F4F      		sbci r21,hhi8(-(1))
 1649 028e 0894      		sec
 1650 0290 E11C      		adc r14,__zero_reg__
 1651 0292 F11C      		adc r15,__zero_reg__
 1652 0294 011D      		adc r16,__zero_reg__
 1653 0296 111D      		adc r17,__zero_reg__
GAS LISTING C:\Users\hag\AppData\Local\Temp/ccHKG4gi.s 			page 30


 1654               	.L135:
 1655 0298 D701      		movw r26,r14
 1656 029a E614      		cp r14,r6
 1657 029c F704      		cpc r15,r7
 1658 029e 00F0      		brlo .L137
 1659               	.L134:
 1660 02a0 83E1      		ldi r24,lo8(19)
 1661 02a2 0E94 0000 		call uart0_send_boot
 1662 02a6 8601      		movw r16,r12
 1663               	.L132:
 1664 02a8 2981      		ldd r18,Y+1
 1665 02aa 3A81      		ldd r19,Y+2
 1666 02ac 0217      		cp r16,r18
 1667 02ae 1307      		cpc r17,r19
 1668 02b0 00F4      		brsh .+2
 1669 02b2 00C0      		rjmp .L138
 1670 02b4 BB20      		tst r11
 1671 02b6 01F0      		breq .L139
 1672 02b8 80EE      		ldi r24,lo8(-32)
 1673 02ba 0E94 0000 		call uart0_send_boot
 1674 02be 00C0      		rjmp .L140
 1675               	.L139:
 1676 02c0 81EE      		ldi r24,lo8(-31)
 1677 02c2 0E94 0000 		call uart0_send_boot
 1678 02c6 80E0      		ldi r24,lo8(126976)
 1679 02c8 90EF      		ldi r25,hi8(126976)
 1680 02ca A1E0      		ldi r26,hlo8(126976)
 1681 02cc B0E0      		ldi r27,hhi8(126976)
 1682 02ce 00C0      		rjmp .L141
 1683               	.L142:
 1684               	/* #APP */
 1685               	 ;  675 "services.c" 1
 1686 02d0 0BBF      		out 59, r16
 1687 02d2 F701      		movw r30, r14
 1688 02d4 8791      		elpm r24, Z+
 1689               		
 1690               	 ;  0 "" 2
 1691               	/* #NOAPP */
 1692 02d6 DB01      		movw r26,r22
 1693 02d8 8D93      		st X+,r24
 1694 02da BD01      		movw r22,r26
 1695 02dc 0894      		sec
 1696 02de E11C      		adc r14,__zero_reg__
 1697 02e0 F11C      		adc r15,__zero_reg__
 1698 02e2 011D      		adc r16,__zero_reg__
 1699 02e4 111D      		adc r17,__zero_reg__
 1700 02e6 E216      		cp r14,r18
 1701 02e8 F306      		cpc r15,r19
 1702 02ea 0407      		cpc r16,r20
 1703 02ec 1507      		cpc r17,r21
 1704 02ee 01F4      		brne .L142
 1705 02f0 C401      		movw r24,r8
 1706 02f2 60E0      		ldi r22,lo8(256)
 1707 02f4 71E0      		ldi r23,hi8(256)
 1708 02f6 0E94 0000 		call uart0_send_buff_boot
 1709 02fa 83E1      		ldi r24,lo8(19)
 1710 02fc 0E94 0000 		call uart0_send_boot
GAS LISTING C:\Users\hag\AppData\Local\Temp/ccHKG4gi.s 			page 31


 1711 0300 B0E0      		ldi r27,lo8(131072)
 1712 0302 EB16      		cp r14,r27
 1713 0304 B0E0      		ldi r27,hi8(131072)
 1714 0306 FB06      		cpc r15,r27
 1715 0308 B2E0      		ldi r27,hlo8(131072)
 1716 030a 0B07      		cpc r16,r27
 1717 030c B0E0      		ldi r27,hhi8(131072)
 1718 030e 1B07      		cpc r17,r27
 1719 0310 01F0      		breq .L140
 1720 0312 D801      		movw r26,r16
 1721 0314 C701      		movw r24,r14
 1722               	.L141:
 1723 0316 B401      		movw r22,r8
 1724 0318 7C01      		movw r14,r24
 1725 031a 8D01      		movw r16,r26
 1726 031c 9C01      		movw r18,r24
 1727 031e AD01      		movw r20,r26
 1728 0320 2050      		subi r18,lo8(-(256))
 1729 0322 3F4F      		sbci r19,hi8(-(256))
 1730 0324 4F4F      		sbci r20,hlo8(-(256))
 1731 0326 5F4F      		sbci r21,hhi8(-(256))
 1732 0328 00C0      		rjmp .L142
 1733               	.L140:
 1734               	/* #APP */
 1735               	 ;  684 "services.c" 1
 1736 032a 7894      		sei
 1737               	 ;  0 "" 2
 1738               	/* #NOAPP */
 1739               	.L143:
 1740               	/* epilogue start */
 1741 032c 0F90      		pop __tmp_reg__
 1742 032e 0F90      		pop __tmp_reg__
 1743 0330 0F90      		pop __tmp_reg__
 1744 0332 0F90      		pop __tmp_reg__
 1745 0334 CF91      		pop r28
 1746 0336 DF91      		pop r29
 1747 0338 1F91      		pop r17
 1748 033a 0F91      		pop r16
 1749 033c FF90      		pop r15
 1750 033e EF90      		pop r14
 1751 0340 DF90      		pop r13
 1752 0342 CF90      		pop r12
 1753 0344 BF90      		pop r11
 1754 0346 AF90      		pop r10
 1755 0348 9F90      		pop r9
 1756 034a 8F90      		pop r8
 1757 034c 7F90      		pop r7
 1758 034e 6F90      		pop r6
 1759 0350 5F90      		pop r5
 1760 0352 4F90      		pop r4
 1761 0354 3F90      		pop r3
 1762 0356 2F90      		pop r2
 1763 0358 0895      		ret
 1764               		.size	flash_boot, .-flash_boot
 1765               		.section	.text.otdr_init,"ax",@progbits
 1766               	.global	otdr_init
 1767               		.type	otdr_init, @function
GAS LISTING C:\Users\hag\AppData\Local\Temp/ccHKG4gi.s 			page 32


 1768               	otdr_init:
 1769               	/* prologue: function */
 1770               	/* frame size = 0 */
 1771 0000 0E94 0000 		call SPI_init
 1772 0004 8898      		cbi 49-32,0
 1773 0006 909A      		sbi 50-32,0
 1774 0008 9598      		cbi 50-32,5
 1775 000a 8D9A      		sbi 49-32,5
 1776               	/* epilogue start */
 1777 000c 0895      		ret
 1778               		.size	otdr_init, .-otdr_init
 1779               		.data
 1780               	.LC0:
 1781 0000 7265 7365 		.string	"reset\r\n"
 1781      740D 0A00 
 1782               		.section	.text.otau_reset,"ax",@progbits
 1783               	.global	otau_reset
 1784               		.type	otau_reset, @function
 1785               	otau_reset:
 1786               	/* prologue: function */
 1787               	/* frame size = 0 */
 1788 0000 2091 0000 		lds r18,uartFile1
 1789 0004 3091 0000 		lds r19,(uartFile1)+1
 1790 0008 80E0      		ldi r24,lo8(.LC0)
 1791 000a 90E0      		ldi r25,hi8(.LC0)
 1792 000c 61E0      		ldi r22,lo8(1)
 1793 000e 70E0      		ldi r23,hi8(1)
 1794 0010 47E0      		ldi r20,lo8(7)
 1795 0012 50E0      		ldi r21,hi8(7)
 1796 0014 0E94 0000 		call fwrite
 1797 0018 81E0      		ldi r24,lo8(1)
 1798               	/* epilogue start */
 1799 001a 0895      		ret
 1800               		.size	otau_reset, .-otau_reset
 1801               		.data
 1802               	.LC2:
 1803 0008 2564 0D0A 		.string	"%d\r\n"
 1803      00
 1804               	.LC1:
 1805 000d 6368 3F0D 		.string	"ch?\r\n"
 1805      0A00 
 1806 0013 0000 0000 		.skip 4,0
 1807               		.section	.text.otau_get_channel,"ax",@progbits
 1808               	.global	otau_get_channel
 1809               		.type	otau_get_channel, @function
 1810               	otau_get_channel:
 1811 0000 0F93      		push r16
 1812 0002 1F93      		push r17
 1813 0004 DF93      		push r29
 1814 0006 CF93      		push r28
 1815 0008 CDB7      		in r28,__SP_L__
 1816 000a DEB7      		in r29,__SP_H__
 1817 000c 2C97      		sbiw r28,12
 1818 000e 0FB6      		in __tmp_reg__,__SREG__
 1819 0010 F894      		cli
 1820 0012 DEBF      		out __SP_H__,r29
 1821 0014 0FBE      		out __SREG__,__tmp_reg__
GAS LISTING C:\Users\hag\AppData\Local\Temp/ccHKG4gi.s 			page 33


 1822 0016 CDBF      		out __SP_L__,r28
 1823               	/* prologue: function */
 1824               	/* frame size = 12 */
 1825 0018 8091 0000 		lds r24,otau_count_channels
 1826 001c 8130      		cpi r24,lo8(1)
 1827 001e 01F4      		brne .+2
 1828 0020 00C0      		rjmp .L151
 1829 0022 DE01      		movw r26,r28
 1830 0024 1396      		adiw r26,3
 1831 0026 E0E0      		ldi r30,lo8(.LC1)
 1832 0028 F0E0      		ldi r31,hi8(.LC1)
 1833 002a 86E0      		ldi r24,lo8(6)
 1834               	.L152:
 1835 002c 0190      		ld r0,Z+
 1836 002e 0D92      		st X+,r0
 1837 0030 8150      		subi r24,lo8(-(-1))
 1838 0032 01F4      		brne .L152
 1839 0034 1986      		std Y+9,__zero_reg__
 1840 0036 1A86      		std Y+10,__zero_reg__
 1841 0038 1B86      		std Y+11,__zero_reg__
 1842 003a 1C86      		std Y+12,__zero_reg__
 1843 003c 0E94 0000 		call NutGetMillis
 1844 0040 9B01      		movw r18,r22
 1845 0042 AC01      		movw r20,r24
 1846 0044 8091 0000 		lds r24,old_tik
 1847 0048 9091 0000 		lds r25,(old_tik)+1
 1848 004c A091 0000 		lds r26,(old_tik)+2
 1849 0050 B091 0000 		lds r27,(old_tik)+3
 1850 0054 281B      		sub r18,r24
 1851 0056 390B      		sbc r19,r25
 1852 0058 4A0B      		sbc r20,r26
 1853 005a 5B0B      		sbc r21,r27
 1854 005c 2093 0000 		sts new_tik,r18
 1855 0060 3093 0000 		sts (new_tik)+1,r19
 1856 0064 4093 0000 		sts (new_tik)+2,r20
 1857 0068 5093 0000 		sts (new_tik)+3,r21
 1858 006c 2C3B      		cpi r18,lo8(700)
 1859 006e 82E0      		ldi r24,hi8(700)
 1860 0070 3807      		cpc r19,r24
 1861 0072 80E0      		ldi r24,hlo8(700)
 1862 0074 4807      		cpc r20,r24
 1863 0076 80E0      		ldi r24,hhi8(700)
 1864 0078 5807      		cpc r21,r24
 1865 007a 00F4      		brsh .L153
 1866 007c 6CEB      		ldi r22,lo8(700)
 1867 007e 72E0      		ldi r23,hi8(700)
 1868 0080 80E0      		ldi r24,hlo8(700)
 1869 0082 90E0      		ldi r25,hhi8(700)
 1870 0084 621B      		sub r22,r18
 1871 0086 730B      		sbc r23,r19
 1872 0088 840B      		sbc r24,r20
 1873 008a 950B      		sbc r25,r21
 1874 008c 0E94 0000 		call NutSleep
 1875               	.L153:
 1876 0090 8E01      		movw r16,r28
 1877 0092 0D5F      		subi r16,lo8(-(3))
 1878 0094 1F4F      		sbci r17,hi8(-(3))
GAS LISTING C:\Users\hag\AppData\Local\Temp/ccHKG4gi.s 			page 34


 1879 0096 F801      		movw r30,r16
 1880 0098 0190      		ld __tmp_reg__,Z+
 1881 009a 0020      		tst __tmp_reg__
 1882 009c 01F4      		brne .-6
 1883 009e 3197      		sbiw r30,1
 1884 00a0 E01B      		sub r30,r16
 1885 00a2 F10B      		sbc r31,r17
 1886 00a4 2091 0000 		lds r18,uartFile1
 1887 00a8 3091 0000 		lds r19,(uartFile1)+1
 1888 00ac C801      		movw r24,r16
 1889 00ae 61E0      		ldi r22,lo8(1)
 1890 00b0 70E0      		ldi r23,hi8(1)
 1891 00b2 AF01      		movw r20,r30
 1892 00b4 0E94 0000 		call fwrite
 1893 00b8 80E6      		ldi r24,lo8(-5536)
 1894 00ba 9AEE      		ldi r25,hi8(-5536)
 1895 00bc FC01      		movw r30,r24
 1896               	/* #APP */
 1897               	 ;  105 "c:/winavr-20100110/lib/gcc/../../avr/include/util/delay_basic.h" 1
 1898 00be 3197      		1: sbiw r30,1
 1899 00c0 01F4      		brne 1b
 1900               	 ;  0 "" 2
 1901               	 ;  105 "c:/winavr-20100110/lib/gcc/../../avr/include/util/delay_basic.h" 1
 1902 00c2 0197      		1: sbiw r24,1
 1903 00c4 01F4      		brne 1b
 1904               	 ;  0 "" 2
 1905               	/* #NOAPP */
 1906 00c6 2091 0000 		lds r18,uartFile1
 1907 00ca 3091 0000 		lds r19,(uartFile1)+1
 1908 00ce C801      		movw r24,r16
 1909 00d0 61E0      		ldi r22,lo8(1)
 1910 00d2 70E0      		ldi r23,hi8(1)
 1911 00d4 4AE0      		ldi r20,lo8(10)
 1912 00d6 50E0      		ldi r21,hi8(10)
 1913 00d8 0E94 0000 		call fread
 1914 00dc FC01      		movw r30,r24
 1915 00de 0097      		sbiw r24,0
 1916 00e0 01F0      		breq .L154
 1917 00e2 E00F      		add r30,r16
 1918 00e4 F11F      		adc r31,r17
 1919 00e6 1082      		st Z,__zero_reg__
 1920 00e8 00D0      		rcall .
 1921 00ea 00D0      		rcall .
 1922 00ec 00D0      		rcall .
 1923 00ee EDB7      		in r30,__SP_L__
 1924 00f0 FEB7      		in r31,__SP_H__
 1925 00f2 3196      		adiw r30,1
 1926 00f4 ADB7      		in r26,__SP_L__
 1927 00f6 BEB7      		in r27,__SP_H__
 1928 00f8 1296      		adiw r26,1+1
 1929 00fa 1C93      		st X,r17
 1930 00fc 0E93      		st -X,r16
 1931 00fe 1197      		sbiw r26,1
 1932 0100 80E0      		ldi r24,lo8(.LC2)
 1933 0102 90E0      		ldi r25,hi8(.LC2)
 1934 0104 9383      		std Z+3,r25
 1935 0106 8283      		std Z+2,r24
GAS LISTING C:\Users\hag\AppData\Local\Temp/ccHKG4gi.s 			page 35


 1936 0108 CE01      		movw r24,r28
 1937 010a 0196      		adiw r24,1
 1938 010c 9583      		std Z+5,r25
 1939 010e 8483      		std Z+4,r24
 1940 0110 0E94 0000 		call sscanf
 1941 0114 2DB7      		in r18,__SP_L__
 1942 0116 3EB7      		in r19,__SP_H__
 1943 0118 2A5F      		subi r18,lo8(-(6))
 1944 011a 3F4F      		sbci r19,hi8(-(6))
 1945 011c 0FB6      		in __tmp_reg__,__SREG__
 1946 011e F894      		cli
 1947 0120 3EBF      		out __SP_H__,r19
 1948 0122 0FBE      		out __SREG__,__tmp_reg__
 1949 0124 2DBF      		out __SP_L__,r18
 1950 0126 892B      		or r24,r25
 1951 0128 01F0      		breq .L154
 1952 012a 8981      		ldd r24,Y+1
 1953 012c 00C0      		rjmp .L151
 1954               	.L154:
 1955 012e 8FEF      		ldi r24,lo8(-1)
 1956               	.L151:
 1957               	/* epilogue start */
 1958 0130 2C96      		adiw r28,12
 1959 0132 0FB6      		in __tmp_reg__,__SREG__
 1960 0134 F894      		cli
 1961 0136 DEBF      		out __SP_H__,r29
 1962 0138 0FBE      		out __SREG__,__tmp_reg__
 1963 013a CDBF      		out __SP_L__,r28
 1964 013c CF91      		pop r28
 1965 013e DF91      		pop r29
 1966 0140 1F91      		pop r17
 1967 0142 0F91      		pop r16
 1968 0144 0895      		ret
 1969               		.size	otau_get_channel, .-otau_get_channel
 1970               		.section	.text.otau_check_alive,"ax",@progbits
 1971               	.global	otau_check_alive
 1972               		.type	otau_check_alive, @function
 1973               	otau_check_alive:
 1974               	/* prologue: function */
 1975               	/* frame size = 0 */
 1976 0000 0E94 0000 		call otau_get_channel
 1977 0004 8111      		cpse r24,__zero_reg__
 1978 0006 81E0      		ldi r24,lo8(1)
 1979               	.L158:
 1980 0008 0895      		ret
 1981               		.size	otau_check_alive, .-otau_check_alive
 1982               		.data
 1983               	.LC3:
 1984 0017 6368 620D 		.string	"chb\r\n"
 1984      0A00 
 1985               	.LC4:
 1986 001d 7479 7065 		.string	"type?\r\n"
 1986      3F0D 0A00 
 1987 0025 0000 0000 		.skip 7,0
 1987      0000 00
 1988               		.section	.text.otau_init,"ax",@progbits
 1989               	.global	otau_init
GAS LISTING C:\Users\hag\AppData\Local\Temp/ccHKG4gi.s 			page 36


 1990               		.type	otau_init, @function
 1991               	otau_init:
 1992 0000 EF92      		push r14
 1993 0002 FF92      		push r15
 1994 0004 0F93      		push r16
 1995 0006 1F93      		push r17
 1996 0008 DF93      		push r29
 1997 000a CF93      		push r28
 1998 000c CDB7      		in r28,__SP_L__
 1999 000e DEB7      		in r29,__SP_H__
 2000 0010 6797      		sbiw r28,23
 2001 0012 0FB6      		in __tmp_reg__,__SREG__
 2002 0014 F894      		cli
 2003 0016 DEBF      		out __SP_H__,r29
 2004 0018 0FBE      		out __SREG__,__tmp_reg__
 2005 001a CDBF      		out __SP_L__,r28
 2006               	/* prologue: function */
 2007               	/* frame size = 23 */
 2008 001c DE01      		movw r26,r28
 2009 001e 1396      		adiw r26,3
 2010 0020 E0E0      		ldi r30,lo8(.LC3)
 2011 0022 F0E0      		ldi r31,hi8(.LC3)
 2012 0024 86E0      		ldi r24,lo8(6)
 2013               	.L161:
 2014 0026 0190      		ld r0,Z+
 2015 0028 0D92      		st X+,r0
 2016 002a 8150      		subi r24,lo8(-(-1))
 2017 002c 01F4      		brne .L161
 2018 002e DE01      		movw r26,r28
 2019 0030 1996      		adiw r26,9
 2020 0032 E0E0      		ldi r30,lo8(.LC4)
 2021 0034 F0E0      		ldi r31,hi8(.LC4)
 2022 0036 88E0      		ldi r24,lo8(8)
 2023               	.L162:
 2024 0038 0190      		ld r0,Z+
 2025 003a 0D92      		st X+,r0
 2026 003c 8150      		subi r24,lo8(-(-1))
 2027 003e 01F4      		brne .L162
 2028 0040 FE01      		movw r30,r28
 2029 0042 7196      		adiw r30,17
 2030 0044 87E0      		ldi r24,lo8(7)
 2031 0046 DF01      		movw r26,r30
 2032 0048 1D92      		st X+,__zero_reg__
 2033 004a 8A95      	        dec r24
 2034 004c 01F4      		brne .-6
 2035 004e 68EE      		ldi r22,lo8(1000)
 2036 0050 73E0      		ldi r23,hi8(1000)
 2037 0052 80E0      		ldi r24,hlo8(1000)
 2038 0054 90E0      		ldi r25,hhi8(1000)
 2039 0056 0E94 0000 		call NutSleep
 2040 005a 2091 0000 		lds r18,uartFile1
 2041 005e 3091 0000 		lds r19,(uartFile1)+1
 2042 0062 80E0      		ldi r24,lo8(.LC0)
 2043 0064 90E0      		ldi r25,hi8(.LC0)
 2044 0066 61E0      		ldi r22,lo8(1)
 2045 0068 70E0      		ldi r23,hi8(1)
 2046 006a 47E0      		ldi r20,lo8(7)
GAS LISTING C:\Users\hag\AppData\Local\Temp/ccHKG4gi.s 			page 37


 2047 006c 50E0      		ldi r21,hi8(7)
 2048 006e 0E94 0000 		call fwrite
 2049 0072 64EC      		ldi r22,lo8(2500)
 2050 0074 79E0      		ldi r23,hi8(2500)
 2051 0076 80E0      		ldi r24,hlo8(2500)
 2052 0078 90E0      		ldi r25,hhi8(2500)
 2053 007a 0E94 0000 		call NutSleep
 2054 007e DE01      		movw r26,r28
 2055 0080 1396      		adiw r26,3
 2056 0082 FD01      		movw r30,r26
 2057 0084 0190      		ld __tmp_reg__,Z+
 2058 0086 0020      		tst __tmp_reg__
 2059 0088 01F4      		brne .-6
 2060 008a 3197      		sbiw r30,1
 2061 008c EA1B      		sub r30,r26
 2062 008e FB0B      		sbc r31,r27
 2063 0090 2091 0000 		lds r18,uartFile1
 2064 0094 3091 0000 		lds r19,(uartFile1)+1
 2065 0098 CD01      		movw r24,r26
 2066 009a 61E0      		ldi r22,lo8(1)
 2067 009c 70E0      		ldi r23,hi8(1)
 2068 009e AF01      		movw r20,r30
 2069 00a0 0E94 0000 		call fwrite
 2070 00a4 00E6      		ldi r16,lo8(-5536)
 2071 00a6 1AEE      		ldi r17,hi8(-5536)
 2072 00a8 C801      		movw r24,r16
 2073               	/* #APP */
 2074               	 ;  105 "c:/winavr-20100110/lib/gcc/../../avr/include/util/delay_basic.h" 1
 2075 00aa 0197      		1: sbiw r24,1
 2076 00ac 01F4      		brne 1b
 2077               	 ;  0 "" 2
 2078               	/* #NOAPP */
 2079 00ae C801      		movw r24,r16
 2080               	/* #APP */
 2081               	 ;  105 "c:/winavr-20100110/lib/gcc/../../avr/include/util/delay_basic.h" 1
 2082 00b0 0197      		1: sbiw r24,1
 2083 00b2 01F4      		brne 1b
 2084               	 ;  0 "" 2
 2085               	/* #NOAPP */
 2086 00b4 89E0      		ldi r24,lo8(9)
 2087 00b6 E82E      		mov r14,r24
 2088 00b8 F12C      		mov r15,__zero_reg__
 2089 00ba EC0E      		add r14,r28
 2090 00bc FD1E      		adc r15,r29
 2091 00be F701      		movw r30,r14
 2092 00c0 0190      		ld __tmp_reg__,Z+
 2093 00c2 0020      		tst __tmp_reg__
 2094 00c4 01F4      		brne .-6
 2095 00c6 3197      		sbiw r30,1
 2096 00c8 EE19      		sub r30,r14
 2097 00ca FF09      		sbc r31,r15
 2098 00cc 2091 0000 		lds r18,uartFile1
 2099 00d0 3091 0000 		lds r19,(uartFile1)+1
 2100 00d4 C701      		movw r24,r14
 2101 00d6 61E0      		ldi r22,lo8(1)
 2102 00d8 70E0      		ldi r23,hi8(1)
 2103 00da AF01      		movw r20,r30
GAS LISTING C:\Users\hag\AppData\Local\Temp/ccHKG4gi.s 			page 38


 2104 00dc 0E94 0000 		call fwrite
 2105 00e0 C801      		movw r24,r16
 2106               	/* #APP */
 2107               	 ;  105 "c:/winavr-20100110/lib/gcc/../../avr/include/util/delay_basic.h" 1
 2108 00e2 0197      		1: sbiw r24,1
 2109 00e4 01F4      		brne 1b
 2110               	 ;  0 "" 2
 2111               	/* #NOAPP */
 2112 00e6 C801      		movw r24,r16
 2113               	/* #APP */
 2114               	 ;  105 "c:/winavr-20100110/lib/gcc/../../avr/include/util/delay_basic.h" 1
 2115 00e8 0197      		1: sbiw r24,1
 2116 00ea 01F4      		brne 1b
 2117               	 ;  0 "" 2
 2118               	/* #NOAPP */
 2119 00ec 2091 0000 		lds r18,uartFile1
 2120 00f0 3091 0000 		lds r19,(uartFile1)+1
 2121 00f4 C701      		movw r24,r14
 2122 00f6 61E0      		ldi r22,lo8(1)
 2123 00f8 70E0      		ldi r23,hi8(1)
 2124 00fa 4FE0      		ldi r20,lo8(15)
 2125 00fc 50E0      		ldi r21,hi8(15)
 2126 00fe 0E94 0000 		call fread
 2127 0102 8C01      		movw r16,r24
 2128 0104 0097      		sbiw r24,0
 2129 0106 01F0      		breq .L164
 2130 0108 E80E      		add r14,r24
 2131 010a F91E      		adc r15,r25
 2132 010c F701      		movw r30,r14
 2133 010e 1082      		st Z,__zero_reg__
 2134 0110 00D0      		rcall .
 2135 0112 00D0      		rcall .
 2136 0114 00D0      		rcall .
 2137 0116 EDB7      		in r30,__SP_L__
 2138 0118 FEB7      		in r31,__SP_H__
 2139 011a 3196      		adiw r30,1
 2140 011c CE01      		movw r24,r28
 2141 011e 0F96      		adiw r24,15
 2142 0120 ADB7      		in r26,__SP_L__
 2143 0122 BEB7      		in r27,__SP_H__
 2144 0124 1296      		adiw r26,1+1
 2145 0126 9C93      		st X,r25
 2146 0128 8E93      		st -X,r24
 2147 012a 1197      		sbiw r26,1
 2148 012c 80E0      		ldi r24,lo8(.LC2)
 2149 012e 90E0      		ldi r25,hi8(.LC2)
 2150 0130 9383      		std Z+3,r25
 2151 0132 8283      		std Z+2,r24
 2152 0134 CE01      		movw r24,r28
 2153 0136 0196      		adiw r24,1
 2154 0138 9583      		std Z+5,r25
 2155 013a 8483      		std Z+4,r24
 2156 013c 0E94 0000 		call sscanf
 2157 0140 2981      		ldd r18,Y+1
 2158 0142 2093 0000 		sts otau_count_channels,r18
 2159 0146 0C0F      		add r16,r28
 2160 0148 1D1F      		adc r17,r29
GAS LISTING C:\Users\hag\AppData\Local\Temp/ccHKG4gi.s 			page 39


 2161 014a EDB7      		in r30,__SP_L__
 2162 014c FEB7      		in r31,__SP_H__
 2163 014e 3696      		adiw r30,6
 2164 0150 0FB6      		in __tmp_reg__,__SREG__
 2165 0152 F894      		cli
 2166 0154 FEBF      		out __SP_H__,r31
 2167 0156 0FBE      		out __SREG__,__tmp_reg__
 2168 0158 EDBF      		out __SP_L__,r30
 2169 015a D801      		movw r26,r16
 2170 015c 1696      		adiw r26,6
 2171 015e 8C91      		ld r24,X
 2172 0160 8236      		cpi r24,lo8(98)
 2173 0162 01F4      		brne .L164
 2174 0164 2068      		ori r18,lo8(-128)
 2175 0166 2093 0000 		sts otau_count_channels,r18
 2176               	.L164:
 2177               	/* epilogue start */
 2178 016a 6796      		adiw r28,23
 2179 016c 0FB6      		in __tmp_reg__,__SREG__
 2180 016e F894      		cli
 2181 0170 DEBF      		out __SP_H__,r29
 2182 0172 0FBE      		out __SREG__,__tmp_reg__
 2183 0174 CDBF      		out __SP_L__,r28
 2184 0176 CF91      		pop r28
 2185 0178 DF91      		pop r29
 2186 017a 1F91      		pop r17
 2187 017c 0F91      		pop r16
 2188 017e FF90      		pop r15
 2189 0180 EF90      		pop r14
 2190 0182 0895      		ret
 2191               		.size	otau_init, .-otau_init
 2192               		.data
 2193               	.LC5:
 2194 002c 6368 2564 		.string	"ch%d\r\n"
 2194      0D0A 00
 2195               		.section	.text.otau_set_channel,"ax",@progbits
 2196               	.global	otau_set_channel
 2197               		.type	otau_set_channel, @function
 2198               	otau_set_channel:
 2199 0000 0F93      		push r16
 2200 0002 1F93      		push r17
 2201 0004 DF93      		push r29
 2202 0006 CF93      		push r28
 2203 0008 CDB7      		in r28,__SP_L__
 2204 000a DEB7      		in r29,__SP_H__
 2205 000c 2A97      		sbiw r28,10
 2206 000e 0FB6      		in __tmp_reg__,__SREG__
 2207 0010 F894      		cli
 2208 0012 DEBF      		out __SP_H__,r29
 2209 0014 0FBE      		out __SREG__,__tmp_reg__
 2210 0016 CDBF      		out __SP_L__,r28
 2211               	/* prologue: function */
 2212               	/* frame size = 10 */
 2213 0018 282F      		mov r18,r24
 2214 001a 30E0      		ldi r19,lo8(0)
 2215 001c 8091 0000 		lds r24,otau_count_channels
 2216 0020 90E0      		ldi r25,lo8(0)
GAS LISTING C:\Users\hag\AppData\Local\Temp/ccHKG4gi.s 			page 40


 2217 0022 8F77      		andi r24,lo8(-129)
 2218 0024 8217      		cp r24,r18
 2219 0026 9307      		cpc r25,r19
 2220 0028 04F4      		brge .L168
 2221 002a 80E0      		ldi r24,lo8(0)
 2222 002c 00C0      		rjmp .L169
 2223               	.L168:
 2224 002e 00D0      		rcall .
 2225 0030 00D0      		rcall .
 2226 0032 00D0      		rcall .
 2227 0034 EDB7      		in r30,__SP_L__
 2228 0036 FEB7      		in r31,__SP_H__
 2229 0038 3196      		adiw r30,1
 2230 003a 8E01      		movw r16,r28
 2231 003c 0F5F      		subi r16,lo8(-(1))
 2232 003e 1F4F      		sbci r17,hi8(-(1))
 2233 0040 ADB7      		in r26,__SP_L__
 2234 0042 BEB7      		in r27,__SP_H__
 2235 0044 1296      		adiw r26,1+1
 2236 0046 1C93      		st X,r17
 2237 0048 0E93      		st -X,r16
 2238 004a 1197      		sbiw r26,1
 2239 004c 80E0      		ldi r24,lo8(.LC5)
 2240 004e 90E0      		ldi r25,hi8(.LC5)
 2241 0050 9383      		std Z+3,r25
 2242 0052 8283      		std Z+2,r24
 2243 0054 3583      		std Z+5,r19
 2244 0056 2483      		std Z+4,r18
 2245 0058 0E94 0000 		call sprintf
 2246 005c F801      		movw r30,r16
 2247 005e 0190      		ld __tmp_reg__,Z+
 2248 0060 0020      		tst __tmp_reg__
 2249 0062 01F4      		brne .-6
 2250 0064 3197      		sbiw r30,1
 2251 0066 E01B      		sub r30,r16
 2252 0068 F10B      		sbc r31,r17
 2253 006a 8DB7      		in r24,__SP_L__
 2254 006c 9EB7      		in r25,__SP_H__
 2255 006e 0696      		adiw r24,6
 2256 0070 0FB6      		in __tmp_reg__,__SREG__
 2257 0072 F894      		cli
 2258 0074 9EBF      		out __SP_H__,r25
 2259 0076 0FBE      		out __SREG__,__tmp_reg__
 2260 0078 8DBF      		out __SP_L__,r24
 2261 007a 2091 0000 		lds r18,uartFile1
 2262 007e 3091 0000 		lds r19,(uartFile1)+1
 2263 0082 C801      		movw r24,r16
 2264 0084 61E0      		ldi r22,lo8(1)
 2265 0086 70E0      		ldi r23,hi8(1)
 2266 0088 AF01      		movw r20,r30
 2267 008a 0E94 0000 		call fwrite
 2268 008e 0E94 0000 		call NutGetMillis
 2269 0092 6093 0000 		sts old_tik,r22
 2270 0096 7093 0000 		sts (old_tik)+1,r23
 2271 009a 8093 0000 		sts (old_tik)+2,r24
 2272 009e 9093 0000 		sts (old_tik)+3,r25
 2273 00a2 81E0      		ldi r24,lo8(1)
GAS LISTING C:\Users\hag\AppData\Local\Temp/ccHKG4gi.s 			page 41


 2274               	.L169:
 2275               	/* epilogue start */
 2276 00a4 2A96      		adiw r28,10
 2277 00a6 0FB6      		in __tmp_reg__,__SREG__
 2278 00a8 F894      		cli
 2279 00aa DEBF      		out __SP_H__,r29
 2280 00ac 0FBE      		out __SREG__,__tmp_reg__
 2281 00ae CDBF      		out __SP_L__,r28
 2282 00b0 CF91      		pop r28
 2283 00b2 DF91      		pop r29
 2284 00b4 1F91      		pop r17
 2285 00b6 0F91      		pop r16
 2286 00b8 0895      		ret
 2287               		.size	otau_set_channel, .-otau_set_channel
 2288               		.section	.text.write_ini,"ax",@progbits
 2289               	.global	write_ini
 2290               		.type	write_ini, @function
 2291               	write_ini:
 2292               	/* prologue: function */
 2293               	/* frame size = 0 */
 2294 0000 69E0      		ldi r22,lo8(265)
 2295 0002 71E0      		ldi r23,hi8(265)
 2296 0004 40EE      		ldi r20,lo8(480)
 2297 0006 51E0      		ldi r21,hi8(480)
 2298 0008 0E94 0000 		call __eewr_block_m128
 2299               	/* epilogue start */
 2300 000c 0895      		ret
 2301               		.size	write_ini, .-write_ini
 2302               		.section	.text.read_ini,"ax",@progbits
 2303               	.global	read_ini
 2304               		.type	read_ini, @function
 2305               	read_ini:
 2306               	/* prologue: function */
 2307               	/* frame size = 0 */
 2308 0000 69E0      		ldi r22,lo8(265)
 2309 0002 71E0      		ldi r23,hi8(265)
 2310 0004 40EE      		ldi r20,lo8(480)
 2311 0006 51E0      		ldi r21,hi8(480)
 2312 0008 0E94 0000 		call __eerd_block_m128
 2313               	/* epilogue start */
 2314 000c 0895      		ret
 2315               		.size	read_ini, .-read_ini
 2316               		.section	.text.set_power_sw,"ax",@progbits
 2317               	.global	set_power_sw
 2318               		.type	set_power_sw, @function
 2319               	set_power_sw:
 2320               	/* prologue: function */
 2321               	/* frame size = 0 */
 2322 0000 682F      		mov r22,r24
 2323 0002 85E0      		ldi r24,lo8(261)
 2324 0004 91E0      		ldi r25,hi8(261)
 2325 0006 0E94 0000 		call __eewr_byte_m128
 2326               	/* epilogue start */
 2327 000a 0895      		ret
 2328               		.size	set_power_sw, .-set_power_sw
 2329               		.section	.text.Power_Led_Thread,"ax",@progbits
 2330               	.global	Power_Led_Thread
GAS LISTING C:\Users\hag\AppData\Local\Temp/ccHKG4gi.s 			page 42


 2331               		.type	Power_Led_Thread, @function
 2332               	Power_Led_Thread:
 2333               	/* prologue: function */
 2334               	/* frame size = 0 */
 2335 0000 60E3      		ldi r22,lo8(30000)
 2336 0002 75E7      		ldi r23,hi8(30000)
 2337 0004 80E0      		ldi r24,hlo8(30000)
 2338 0006 90E0      		ldi r25,hhi8(30000)
 2339 0008 0E94 0000 		call NutSleep
 2340 000c DD24      		clr r13
 2341 000e D394      		inc r13
 2342               	.L181:
 2343 0010 8499      		sbic 48-32,4
 2344 0012 00C0      		rjmp .L178
 2345 0014 D092 0000 		sts power_led_flag,r13
 2346 0018 1092 0000 		sts enable_timer1_flag,__zero_reg__
 2347 001c 87B7      		in r24,87-32
 2348 001e 8B7F      		andi r24,lo8(-5)
 2349 0020 87BF      		out 87-32,r24
 2350 0022 1EBC      		out 78-32,__zero_reg__
 2351 0024 89B7      		in r24,89-32
 2352 0026 8F7E      		andi r24,lo8(-17)
 2353 0028 89BF      		out 89-32,r24
 2354 002a 8AE0      		ldi r24,lo8(10)
 2355 002c 60E0      		ldi r22,lo8(0)
 2356 002e 70E0      		ldi r23,hi8(0)
 2357 0030 40E0      		ldi r20,lo8(0)
 2358 0032 50E0      		ldi r21,hi8(0)
 2359 0034 20E0      		ldi r18,lo8(0)
 2360 0036 30E0      		ldi r19,hi8(0)
 2361 0038 EE24      		clr r14
 2362 003a FF24      		clr r15
 2363 003c 8701      		movw r16,r14
 2364 003e 0E94 0000 		call display_show
 2365 0042 85E0      		ldi r24,lo8(261)
 2366 0044 91E0      		ldi r25,hi8(261)
 2367 0046 60E0      		ldi r22,lo8(0)
 2368 0048 0E94 0000 		call __eewr_byte_m128
 2369 004c 00C0      		rjmp .L179
 2370               	.L178:
 2371 004e 8091 0000 		lds r24,power_led_flag
 2372 0052 8823      		tst r24
 2373 0054 01F0      		breq .L179
 2374 0056 28E0      		ldi r18,lo8(8)
 2375 0058 88E1      		ldi r24,lo8(24)
 2376 005a 90E0      		ldi r25,hi8(24)
 2377               	/* #APP */
 2378               	 ;  357 "services.c" 1
 2379 005c 0FB6      		in __tmp_reg__,__SREG__
 2380 005e F894      		cli
 2381 0060 A895      		wdr
 2382 0062 81BD      		out 33,r24
 2383 0064 0FBE      		out __SREG__,__tmp_reg__
 2384 0066 21BD      		out 33,r18
 2385               	 ;  0 "" 2
 2386               	/* #NOAPP */
 2387               	.L180:
GAS LISTING C:\Users\hag\AppData\Local\Temp/ccHKG4gi.s 			page 43


 2388 0068 00C0      		rjmp .L180
 2389               	.L179:
 2390 006a 0E94 0000 		call NutThreadYield
 2391 006e 00C0      		rjmp .L181
 2392               		.size	Power_Led_Thread, .-Power_Led_Thread
 2393               		.section	.text.get_power_sw,"ax",@progbits
 2394               	.global	get_power_sw
 2395               		.type	get_power_sw, @function
 2396               	get_power_sw:
 2397               	/* prologue: function */
 2398               	/* frame size = 0 */
 2399 0000 85E0      		ldi r24,lo8(261)
 2400 0002 91E0      		ldi r25,hi8(261)
 2401 0004 0E94 0000 		call __eerd_byte_m128
 2402               	/* epilogue start */
 2403 0008 0895      		ret
 2404               		.size	get_power_sw, .-get_power_sw
 2405               		.section	.text.Power_Sw_Thread,"ax",@progbits
 2406               	.global	Power_Sw_Thread
 2407               		.type	Power_Sw_Thread, @function
 2408               	Power_Sw_Thread:
 2409               	/* prologue: function */
 2410               	/* frame size = 0 */
 2411 0000 68EB      		ldi r22,lo8(3000)
 2412 0002 7BE0      		ldi r23,hi8(3000)
 2413 0004 80E0      		ldi r24,hlo8(3000)
 2414 0006 90E0      		ldi r25,hhi8(3000)
 2415 0008 0E94 0000 		call NutSleep
 2416               	.L191:
 2417 000c 80E0      		ldi r24,lo8(power_sw_event)
 2418 000e 90E0      		ldi r25,hi8(power_sw_event)
 2419 0010 44E6      		ldi r20,lo8(100)
 2420 0012 50E0      		ldi r21,hi8(100)
 2421 0014 60E0      		ldi r22,hlo8(100)
 2422 0016 70E0      		ldi r23,hhi8(100)
 2423 0018 0E94 0000 		call NutEventWaitNext
 2424 001c 892B      		or r24,r25
 2425 001e 01F4      		brne .L186
 2426 0020 8091 0000 		lds r24,power_led_flag
 2427 0024 8823      		tst r24
 2428 0026 01F0      		breq .L187
 2429 0028 28E0      		ldi r18,lo8(8)
 2430 002a 88E1      		ldi r24,lo8(24)
 2431 002c 90E0      		ldi r25,hi8(24)
 2432               	/* #APP */
 2433               	 ;  357 "services.c" 1
 2434 002e 0FB6      		in __tmp_reg__,__SREG__
 2435 0030 F894      		cli
 2436 0032 A895      		wdr
 2437 0034 81BD      		out 33,r24
 2438 0036 0FBE      		out __SREG__,__tmp_reg__
 2439 0038 21BD      		out 33,r18
 2440               	 ;  0 "" 2
 2441               	/* #NOAPP */
 2442               	.L188:
 2443 003a 00C0      		rjmp .L188
 2444               	.L187:
GAS LISTING C:\Users\hag\AppData\Local\Temp/ccHKG4gi.s 			page 44


 2445 003c 85E0      		ldi r24,lo8(261)
 2446 003e 91E0      		ldi r25,hi8(261)
 2447 0040 0E94 0000 		call __eerd_byte_m128
 2448 0044 8130      		cpi r24,lo8(1)
 2449 0046 01F0      		breq .L193
 2450 0048 85E0      		ldi r24,lo8(261)
 2451 004a 91E0      		ldi r25,hi8(261)
 2452 004c 61E0      		ldi r22,lo8(1)
 2453 004e 0E94 0000 		call __eewr_byte_m128
 2454 0052 1092 0000 		sts enable_timer1_flag,__zero_reg__
 2455 0056 87B7      		in r24,87-32
 2456 0058 8B7F      		andi r24,lo8(-5)
 2457 005a 87BF      		out 87-32,r24
 2458 005c 1EBC      		out 78-32,__zero_reg__
 2459 005e 89B7      		in r24,89-32
 2460 0060 8F7E      		andi r24,lo8(-17)
 2461 0062 89BF      		out 89-32,r24
 2462 0064 00C0      		rjmp .L193
 2463               	.L190:
 2464 0066 0E94 0000 		call NutThreadYield
 2465               	.L193:
 2466 006a 819B      		sbis 48-32,1
 2467 006c 00C0      		rjmp .L190
 2468 006e 89B7      		in r24,89-32
 2469 0070 8260      		ori r24,lo8(2)
 2470 0072 89BF      		out 89-32,r24
 2471               	.L186:
 2472 0074 0E94 0000 		call NutThreadYield
 2473 0078 00C0      		rjmp .L191
 2474               		.size	Power_Sw_Thread, .-Power_Sw_Thread
 2475               		.section	.text.set_rtu_number,"ax",@progbits
 2476               	.global	set_rtu_number
 2477               		.type	set_rtu_number, @function
 2478               	set_rtu_number:
 2479 0000 EF92      		push r14
 2480 0002 FF92      		push r15
 2481 0004 0F93      		push r16
 2482 0006 1F93      		push r17
 2483               	/* prologue: function */
 2484               	/* frame size = 0 */
 2485 0008 E82E      		mov r14,r24
 2486 000a 86E0      		ldi r24,lo8(262)
 2487 000c 91E0      		ldi r25,hi8(262)
 2488 000e 0E94 0000 		call __eewr_word_m128
 2489 0012 88E0      		ldi r24,lo8(264)
 2490 0014 91E0      		ldi r25,hi8(264)
 2491 0016 6E2D      		mov r22,r14
 2492 0018 0E94 0000 		call __eewr_byte_m128
 2493               	/* epilogue start */
 2494 001c 1F91      		pop r17
 2495 001e 0F91      		pop r16
 2496 0020 FF90      		pop r15
 2497 0022 EF90      		pop r14
 2498 0024 0895      		ret
 2499               		.size	set_rtu_number, .-set_rtu_number
 2500               		.section	.text.get_rtu_number,"ax",@progbits
 2501               	.global	get_rtu_number
GAS LISTING C:\Users\hag\AppData\Local\Temp/ccHKG4gi.s 			page 45


 2502               		.type	get_rtu_number, @function
 2503               	get_rtu_number:
 2504               	/* prologue: function */
 2505               	/* frame size = 0 */
 2506 0000 86E0      		ldi r24,lo8(262)
 2507 0002 91E0      		ldi r25,hi8(262)
 2508 0004 0E94 0000 		call __eerd_dword_m128
 2509 0008 9B01      		movw r18,r22
 2510 000a AC01      		movw r20,r24
 2511 000c 5070      		andi r21,hhi8(16777215)
 2512 000e B901      		movw r22,r18
 2513 0010 CA01      		movw r24,r20
 2514               	/* epilogue start */
 2515 0012 0895      		ret
 2516               		.size	get_rtu_number, .-get_rtu_number
 2517               		.data
 2518               	.LC6:
 2519 0033 2563 00   		.string	"%c"
 2520               		.section	.text.WIN_Load_Thread,"ax",@progbits
 2521               	.global	WIN_Load_Thread
 2522               		.type	WIN_Load_Thread, @function
 2523               	WIN_Load_Thread:
 2524 0000 DF93      		push r29
 2525 0002 CF93      		push r28
 2526 0004 0F92      		push __tmp_reg__
 2527 0006 CDB7      		in r28,__SP_L__
 2528 0008 DEB7      		in r29,__SP_H__
 2529               	/* prologue: function */
 2530               	/* frame size = 1 */
 2531 000a 90E0      		ldi r25,lo8(.LC6)
 2532 000c A92E      		mov r10,r25
 2533 000e 90E0      		ldi r25,hi8(.LC6)
 2534 0010 B92E      		mov r11,r25
 2535 0012 6E01      		movw r12,r28
 2536 0014 0894      		sec
 2537 0016 C11C      		adc r12,__zero_reg__
 2538 0018 D11C      		adc r13,__zero_reg__
 2539 001a 9924      		clr r9
 2540 001c 9394      		inc r9
 2541               	.L205:
 2542 001e 00D0      		rcall .
 2543 0020 00D0      		rcall .
 2544 0022 EDB7      		in r30,__SP_L__
 2545 0024 FEB7      		in r31,__SP_H__
 2546 0026 B282      		std Z+2,r11
 2547 0028 A182      		std Z+1,r10
 2548 002a D482      		std Z+4,r13
 2549 002c C382      		std Z+3,r12
 2550 002e 0E94 0000 		call scanf
 2551 0032 0F90      		pop __tmp_reg__
 2552 0034 0F90      		pop __tmp_reg__
 2553 0036 0F90      		pop __tmp_reg__
 2554 0038 0F90      		pop __tmp_reg__
 2555 003a 8981      		ldd r24,Y+1
 2556 003c 8331      		cpi r24,lo8(19)
 2557 003e 01F4      		brne .L199
 2558 0040 8DE0      		ldi r24,lo8(13)
GAS LISTING C:\Users\hag\AppData\Local\Temp/ccHKG4gi.s 			page 46


 2559 0042 90E0      		ldi r25,hi8(13)
 2560 0044 0E94 0000 		call putchar
 2561 0048 9092 0000 		sts win_loaded,r9
 2562 004c 9091 0000 		lds r25,pc_loaded
 2563 0050 9923      		tst r25
 2564 0052 01F4      		brne .L200
 2565 0054 1092 0000 		sts enable_timer1_flag,__zero_reg__
 2566 0058 87B7      		in r24,87-32
 2567 005a 8B7F      		andi r24,lo8(-5)
 2568 005c 87BF      		out 87-32,r24
 2569 005e 1EBC      		out 78-32,__zero_reg__
 2570               	.L200:
 2571 0060 8091 0000 		lds r24,otdr_rs232_manual
 2572 0064 8823      		tst r24
 2573 0066 01F4      		brne .L199
 2574 0068 9923      		tst r25
 2575 006a 01F0      		breq .L201
 2576 006c 0E94 0000 		call get_rtu_number
 2577 0070 7B01      		movw r14,r22
 2578 0072 8C01      		movw r16,r24
 2579 0074 81E0      		ldi r24,lo8(1)
 2580 0076 00C0      		rjmp .L207
 2581               	.L201:
 2582 0078 0E94 0000 		call get_rtu_number
 2583 007c 7B01      		movw r14,r22
 2584 007e 8C01      		movw r16,r24
 2585 0080 85E0      		ldi r24,lo8(5)
 2586               	.L207:
 2587 0082 60E0      		ldi r22,lo8(0)
 2588 0084 70E0      		ldi r23,hi8(0)
 2589 0086 40E0      		ldi r20,lo8(0)
 2590 0088 50E0      		ldi r21,hi8(0)
 2591 008a 20E0      		ldi r18,lo8(0)
 2592 008c 30E0      		ldi r19,hi8(0)
 2593 008e 0E94 0000 		call display_show
 2594               	.L199:
 2595 0092 8981      		ldd r24,Y+1
 2596 0094 8431      		cpi r24,lo8(20)
 2597 0096 01F4      		brne .L202
 2598 0098 8DE0      		ldi r24,lo8(13)
 2599 009a 90E0      		ldi r25,hi8(13)
 2600 009c 0E94 0000 		call putchar
 2601 00a0 9092 0000 		sts con_otdr,r9
 2602 00a4 8091 0000 		lds r24,pc_loaded
 2603 00a8 8823      		tst r24
 2604 00aa 01F4      		brne .L203
 2605 00ac 1092 0000 		sts enable_timer1_flag,__zero_reg__
 2606 00b0 87B7      		in r24,87-32
 2607 00b2 8B7F      		andi r24,lo8(-5)
 2608 00b4 87BF      		out 87-32,r24
 2609 00b6 1EBC      		out 78-32,__zero_reg__
 2610               	.L203:
 2611 00b8 8091 0000 		lds r24,otdr_rs232_manual
 2612 00bc 8823      		tst r24
 2613 00be 01F4      		brne .L202
 2614 00c0 0E94 0000 		call get_rtu_number
 2615 00c4 7B01      		movw r14,r22
GAS LISTING C:\Users\hag\AppData\Local\Temp/ccHKG4gi.s 			page 47


 2616 00c6 8C01      		movw r16,r24
 2617 00c8 88E0      		ldi r24,lo8(8)
 2618 00ca 60E0      		ldi r22,lo8(0)
 2619 00cc 70E0      		ldi r23,hi8(0)
 2620 00ce 40E0      		ldi r20,lo8(0)
 2621 00d0 50E0      		ldi r21,hi8(0)
 2622 00d2 20E0      		ldi r18,lo8(0)
 2623 00d4 30E0      		ldi r19,hi8(0)
 2624 00d6 0E94 0000 		call display_show
 2625               	.L202:
 2626 00da 8981      		ldd r24,Y+1
 2627 00dc 87FF      		sbrs r24,7
 2628 00de 00C0      		rjmp .L204
 2629 00e0 8DE0      		ldi r24,lo8(13)
 2630 00e2 90E0      		ldi r25,hi8(13)
 2631 00e4 0E94 0000 		call putchar
 2632 00e8 6981      		ldd r22,Y+1
 2633 00ea 70E0      		ldi r23,lo8(0)
 2634 00ec 6F77      		andi r22,lo8(127)
 2635 00ee 7070      		andi r23,hi8(127)
 2636 00f0 89E0      		ldi r24,lo8(9)
 2637 00f2 40E0      		ldi r20,lo8(0)
 2638 00f4 50E0      		ldi r21,hi8(0)
 2639 00f6 20E0      		ldi r18,lo8(0)
 2640 00f8 30E0      		ldi r19,hi8(0)
 2641 00fa EE24      		clr r14
 2642 00fc FF24      		clr r15
 2643 00fe 8701      		movw r16,r14
 2644 0100 0E94 0000 		call display_show
 2645               	.L204:
 2646 0104 0E94 0000 		call NutThreadYield
 2647 0108 00C0      		rjmp .L205
 2648               		.size	WIN_Load_Thread, .-WIN_Load_Thread
 2649               		.section	.text.OTAU_Thread,"ax",@progbits
 2650               	.global	OTAU_Thread
 2651               		.type	OTAU_Thread, @function
 2652               	OTAU_Thread:
 2653               	/* prologue: function */
 2654               	/* frame size = 0 */
 2655 0000 C1E7      		ldi r28,lo8(369)
 2656 0002 D1E0      		ldi r29,hi8(369)
 2657 0004 CC24      		clr r12
 2658 0006 C394      		inc r12
 2659               	.L226:
 2660 0008 80E0      		ldi r24,lo8(otau_event)
 2661 000a 90E0      		ldi r25,hi8(otau_event)
 2662 000c 40E0      		ldi r20,lo8(0)
 2663 000e 50E0      		ldi r21,hi8(0)
 2664 0010 60E0      		ldi r22,hlo8(0)
 2665 0012 70E0      		ldi r23,hhi8(0)
 2666 0014 0E94 0000 		call NutEventWaitNext
 2667 0018 8091 0000 		lds r24,otdr_rs232_manual
 2668 001c 8823      		tst r24
 2669 001e 01F4      		brne .L209
 2670 0020 80E0      		ldi r24,lo8(0)
 2671 0022 90E0      		ldi r25,hi8(0)
 2672 0024 00C0      		rjmp .L210
GAS LISTING C:\Users\hag\AppData\Local\Temp/ccHKG4gi.s 			page 48


 2673               	.L209:
 2674 0026 80E0      		ldi r24,lo8(0)
 2675 0028 90E0      		ldi r25,hi8(0)
 2676 002a 00C0      		rjmp .L211
 2677               	.L213:
 2678 002c 0196      		adiw r24,1
 2679 002e FE01      		movw r30,r28
 2680               	/* #APP */
 2681               	 ;  105 "c:/winavr-20100110/lib/gcc/../../avr/include/util/delay_basic.h" 1
 2682 0030 3197      		1: sbiw r30,1
 2683 0032 01F4      		brne 1b
 2684               	 ;  0 "" 2
 2685               	/* #NOAPP */
 2686               	.L211:
 2687 0034 0C99      		sbic 33-32,4
 2688 0036 00C0      		rjmp .L212
 2689 0038 27E2      		ldi r18,hi8(10000)
 2690 003a 8031      		cpi r24,lo8(10000)
 2691 003c 9207      		cpc r25,r18
 2692 003e 01F4      		brne .L213
 2693 0040 00C0      		rjmp .L214
 2694               	.L212:
 2695 0042 27E2      		ldi r18,hi8(10000)
 2696 0044 8031      		cpi r24,lo8(10000)
 2697 0046 9207      		cpc r25,r18
 2698 0048 01F4      		brne .L215
 2699               	.L214:
 2700 004a 1092 0000 		sts otdr_rs232_manual,__zero_reg__
 2701 004e 8091 0000 		lds r24,pc_loaded
 2702 0052 8823      		tst r24
 2703 0054 01F0      		breq .L216
 2704 0056 0E94 0000 		call otau_get_channel
 2705 005a D82E      		mov r13,r24
 2706 005c 0E94 0000 		call get_rtu_number
 2707 0060 7B01      		movw r14,r22
 2708 0062 8C01      		movw r16,r24
 2709 0064 81E0      		ldi r24,lo8(1)
 2710 0066 00C0      		rjmp .L231
 2711               	.L216:
 2712 0068 8091 0000 		lds r24,con_otdr
 2713 006c 8823      		tst r24
 2714 006e 01F0      		breq .L218
 2715 0070 0E94 0000 		call get_rtu_number
 2716 0074 7B01      		movw r14,r22
 2717 0076 8C01      		movw r16,r24
 2718 0078 88E0      		ldi r24,lo8(8)
 2719 007a 00C0      		rjmp .L234
 2720               	.L218:
 2721 007c 8091 0000 		lds r24,win_loaded
 2722 0080 8823      		tst r24
 2723 0082 01F0      		breq .L219
 2724 0084 0E94 0000 		call get_rtu_number
 2725 0088 7B01      		movw r14,r22
 2726 008a 8C01      		movw r16,r24
 2727 008c 85E0      		ldi r24,lo8(5)
 2728               	.L234:
 2729 008e 60E0      		ldi r22,lo8(0)
GAS LISTING C:\Users\hag\AppData\Local\Temp/ccHKG4gi.s 			page 49


 2730 0090 70E0      		ldi r23,hi8(0)
 2731 0092 40E0      		ldi r20,lo8(0)
 2732 0094 50E0      		ldi r21,hi8(0)
 2733 0096 00C0      		rjmp .L232
 2734               	.L219:
 2735 0098 0E94 0000 		call get_rtu_number
 2736 009c 7B01      		movw r14,r22
 2737 009e 8C01      		movw r16,r24
 2738 00a0 80E0      		ldi r24,lo8(0)
 2739 00a2 60E0      		ldi r22,lo8(0)
 2740 00a4 70E0      		ldi r23,hi8(0)
 2741 00a6 40E0      		ldi r20,lo8(0)
 2742 00a8 50E0      		ldi r21,hi8(0)
 2743 00aa 20E0      		ldi r18,lo8(0)
 2744 00ac 30E0      		ldi r19,hi8(0)
 2745 00ae 0E94 0000 		call display_show
 2746 00b2 C092 0000 		sts enable_timer1_flag,r12
 2747 00b6 00C0      		rjmp .L228
 2748               	.L215:
 2749 00b8 C397      		sbiw r24,51
 2750 00ba 00F4      		brsh .+2
 2751 00bc 00C0      		rjmp .L228
 2752 00be 0E94 0000 		call otau_get_channel
 2753 00c2 4091 0000 		lds r20,otau_count_channels
 2754 00c6 90E0      		ldi r25,lo8(0)
 2755 00c8 242F      		mov r18,r20
 2756 00ca 30E0      		ldi r19,lo8(0)
 2757 00cc 2F77      		andi r18,lo8(-129)
 2758 00ce 8217      		cp r24,r18
 2759 00d0 9307      		cpc r25,r19
 2760 00d2 04F0      		brlt .L220
 2761 00d4 47FF      		sbrs r20,7
 2762 00d6 00C0      		rjmp .L221
 2763 00d8 80E0      		ldi r24,lo8(0)
 2764 00da 00C0      		rjmp .L230
 2765               	.L221:
 2766 00dc 81E0      		ldi r24,lo8(1)
 2767 00de 00C0      		rjmp .L230
 2768               	.L220:
 2769 00e0 0E94 0000 		call otau_get_channel
 2770 00e4 8F5F      		subi r24,lo8(-(1))
 2771               	.L230:
 2772 00e6 0E94 0000 		call otau_set_channel
 2773 00ea 0E94 0000 		call otau_get_channel
 2774 00ee D82E      		mov r13,r24
 2775 00f0 0E94 0000 		call get_rtu_number
 2776 00f4 00C0      		rjmp .L233
 2777               	.L224:
 2778 00f6 0196      		adiw r24,1
 2779 00f8 FE01      		movw r30,r28
 2780               	/* #APP */
 2781               	 ;  105 "c:/winavr-20100110/lib/gcc/../../avr/include/util/delay_basic.h" 1
 2782 00fa 3197      		1: sbiw r30,1
 2783 00fc 01F4      		brne 1b
 2784               	 ;  0 "" 2
 2785               	/* #NOAPP */
 2786               	.L210:
GAS LISTING C:\Users\hag\AppData\Local\Temp/ccHKG4gi.s 			page 50


 2787 00fe 0C99      		sbic 33-32,4
 2788 0100 00C0      		rjmp .L223
 2789 0102 27E2      		ldi r18,hi8(10000)
 2790 0104 8031      		cpi r24,lo8(10000)
 2791 0106 9207      		cpc r25,r18
 2792 0108 01F4      		brne .L224
 2793 010a 00C0      		rjmp .L225
 2794               	.L223:
 2795 010c 8051      		subi r24,lo8(10000)
 2796 010e 9742      		sbci r25,hi8(10000)
 2797 0110 01F4      		brne .L228
 2798               	.L225:
 2799 0112 1092 0000 		sts enable_timer1_flag,__zero_reg__
 2800 0116 C092 0000 		sts otdr_rs232_manual,r12
 2801 011a 0E94 0000 		call otau_get_channel
 2802 011e D82E      		mov r13,r24
 2803 0120 0E94 0000 		call get_rtu_number
 2804               	.L233:
 2805 0124 7B01      		movw r14,r22
 2806 0126 8C01      		movw r16,r24
 2807 0128 84E0      		ldi r24,lo8(4)
 2808               	.L231:
 2809 012a 60E0      		ldi r22,lo8(0)
 2810 012c 70E0      		ldi r23,hi8(0)
 2811 012e 4D2D      		mov r20,r13
 2812 0130 50E0      		ldi r21,lo8(0)
 2813               	.L232:
 2814 0132 20E0      		ldi r18,lo8(0)
 2815 0134 30E0      		ldi r19,hi8(0)
 2816 0136 0E94 0000 		call display_show
 2817               	.L228:
 2818 013a 0C9B      		sbis 33-32,4
 2819 013c 00C0      		rjmp .L228
 2820 013e 00C0      		rjmp .L226
 2821               		.size	OTAU_Thread, .-OTAU_Thread
 2822               		.section	.text.__vector_14,"ax",@progbits
 2823               	.global	__vector_14
 2824               		.type	__vector_14, @function
 2825               	__vector_14:
 2826 0000 1F92      		push __zero_reg__
 2827 0002 0F92      		push r0
 2828 0004 0FB6      		in r0,__SREG__
 2829 0006 0F92      		push r0
 2830 0008 0BB6      		in r0,91-32
 2831 000a 0F92      		push r0
 2832 000c 1124      		clr __zero_reg__
 2833 000e EF92      		push r14
 2834 0010 FF92      		push r15
 2835 0012 0F93      		push r16
 2836 0014 1F93      		push r17
 2837 0016 2F93      		push r18
 2838 0018 3F93      		push r19
 2839 001a 4F93      		push r20
 2840 001c 5F93      		push r21
 2841 001e 6F93      		push r22
 2842 0020 7F93      		push r23
 2843 0022 8F93      		push r24
GAS LISTING C:\Users\hag\AppData\Local\Temp/ccHKG4gi.s 			page 51


 2844 0024 9F93      		push r25
 2845 0026 AF93      		push r26
 2846 0028 BF93      		push r27
 2847 002a EF93      		push r30
 2848 002c FF93      		push r31
 2849               	/* prologue: Signal */
 2850               	/* frame size = 0 */
 2851 002e 8FE1      		ldi r24,lo8(31)
 2852 0030 8DBD      		out 77-32,r24
 2853 0032 82E0      		ldi r24,lo8(2)
 2854 0034 8CBD      		out 76-32,r24
 2855 0036 8DE0      		ldi r24,lo8(13)
 2856 0038 8093 0000 		sts loading_min,r24
 2857 003c 8EE0      		ldi r24,lo8(14)
 2858 003e 8093 0000 		sts loading_sec,r24
 2859 0042 8091 0000 		lds r24,enable_timer1_flag
 2860 0046 8823      		tst r24
 2861 0048 01F0      		breq .L237
 2862 004a 0E94 0000 		call get_rtu_number
 2863 004e 7B01      		movw r14,r22
 2864 0050 8C01      		movw r16,r24
 2865 0052 80E0      		ldi r24,lo8(0)
 2866 0054 60E0      		ldi r22,lo8(0)
 2867 0056 70E0      		ldi r23,hi8(0)
 2868 0058 40E0      		ldi r20,lo8(0)
 2869 005a 50E0      		ldi r21,hi8(0)
 2870 005c 20E0      		ldi r18,lo8(0)
 2871 005e 30E0      		ldi r19,hi8(0)
 2872 0060 0E94 0000 		call display_show
 2873               	.L237:
 2874               	/* epilogue start */
 2875 0064 FF91      		pop r31
 2876 0066 EF91      		pop r30
 2877 0068 BF91      		pop r27
 2878 006a AF91      		pop r26
 2879 006c 9F91      		pop r25
 2880 006e 8F91      		pop r24
 2881 0070 7F91      		pop r23
 2882 0072 6F91      		pop r22
 2883 0074 5F91      		pop r21
 2884 0076 4F91      		pop r20
 2885 0078 3F91      		pop r19
 2886 007a 2F91      		pop r18
 2887 007c 1F91      		pop r17
 2888 007e 0F91      		pop r16
 2889 0080 FF90      		pop r15
 2890 0082 EF90      		pop r14
 2891 0084 0F90      		pop r0
 2892 0086 0BBE      		out 91-32,r0
 2893 0088 0F90      		pop r0
 2894 008a 0FBE      		out __SREG__,r0
 2895 008c 0F90      		pop r0
 2896 008e 1F90      		pop __zero_reg__
 2897 0090 1895      		reti
 2898               		.size	__vector_14, .-__vector_14
 2899               	.global	otdr_rs232_manual
 2900               	.global	otdr_rs232_manual
GAS LISTING C:\Users\hag\AppData\Local\Temp/ccHKG4gi.s 			page 52


 2901               		.section .bss
 2902               		.type	otdr_rs232_manual, @object
 2903               		.size	otdr_rs232_manual, 1
 2904               	otdr_rs232_manual:
 2905 0000 00        		.skip 1,0
 2906               	.global	enable_timer1_flag
 2907               	.global	enable_timer1_flag
 2908               		.type	enable_timer1_flag, @object
 2909               		.size	enable_timer1_flag, 1
 2910               	enable_timer1_flag:
 2911 0001 00        		.skip 1,0
 2912               	.global	otau_count_channels
 2913               		.data
 2914               		.type	otau_count_channels, @object
 2915               		.size	otau_count_channels, 1
 2916               	otau_count_channels:
 2917 0036 01        		.byte	1
 2918               	.global	win_loaded
 2919               	.global	win_loaded
 2920               		.section .bss
 2921               		.type	win_loaded, @object
 2922               		.size	win_loaded, 1
 2923               	win_loaded:
 2924 0002 00        		.skip 1,0
 2925               	.global	con_otdr
 2926               	.global	con_otdr
 2927               		.type	con_otdr, @object
 2928               		.size	con_otdr, 1
 2929               	con_otdr:
 2930 0003 00        		.skip 1,0
 2931               	.global	power_led_flag
 2932               	.global	power_led_flag
 2933               		.type	power_led_flag, @object
 2934               		.size	power_led_flag, 1
 2935               	power_led_flag:
 2936 0004 00        		.skip 1,0
 2937               	.global	power_sw_flag
 2938               	.global	power_sw_flag
 2939               		.type	power_sw_flag, @object
 2940               		.size	power_sw_flag, 1
 2941               	power_sw_flag:
 2942 0005 00        		.skip 1,0
 2943               	.global	old_tik
 2944               	.global	old_tik
 2945               		.type	old_tik, @object
 2946               		.size	old_tik, 4
 2947               	old_tik:
 2948 0006 0000 0000 		.skip 4,0
 2949               		.lcomm otau_event,2
 2950               		.lcomm power_sw_event,2
 2951               		.comm loading_min,1,1
 2952               		.comm loading_sec,1,1
 2953               		.comm new_tik,4,1
 2954               	.global __do_copy_data
 2955               	.global __do_clear_bss
GAS LISTING C:\Users\hag\AppData\Local\Temp/ccHKG4gi.s 			page 53


DEFINED SYMBOLS
                            *ABS*:00000000 services.c
C:\Users\hag\AppData\Local\Temp/ccHKG4gi.s:2      *ABS*:0000003f __SREG__
C:\Users\hag\AppData\Local\Temp/ccHKG4gi.s:3      *ABS*:0000003e __SP_H__
C:\Users\hag\AppData\Local\Temp/ccHKG4gi.s:4      *ABS*:0000003d __SP_L__
C:\Users\hag\AppData\Local\Temp/ccHKG4gi.s:5      *ABS*:00000034 __CCP__
C:\Users\hag\AppData\Local\Temp/ccHKG4gi.s:6      *ABS*:00000000 __tmp_reg__
C:\Users\hag\AppData\Local\Temp/ccHKG4gi.s:7      *ABS*:00000001 __zero_reg__
C:\Users\hag\AppData\Local\Temp/ccHKG4gi.s:11     .text.init_key:00000000 init_key
C:\Users\hag\AppData\Local\Temp/ccHKG4gi.s:31     .text.enable_int_key:00000000 enable_int_key
C:\Users\hag\AppData\Local\Temp/ccHKG4gi.s:43     .text.disable_int_key:00000000 disable_int_key
C:\Users\hag\AppData\Local\Temp/ccHKG4gi.s:55     .text.init_power_pc:00000000 init_power_pc
C:\Users\hag\AppData\Local\Temp/ccHKG4gi.s:77     .text.enable_int_power_sw:00000000 enable_int_power_sw
C:\Users\hag\AppData\Local\Temp/ccHKG4gi.s:89     .text.disable_int_power_sw:00000000 disable_int_power_sw
C:\Users\hag\AppData\Local\Temp/ccHKG4gi.s:101    .text.reset_ext:00000000 reset_ext
C:\Users\hag\AppData\Local\Temp/ccHKG4gi.s:171    .text.get_start_time_min:00000000 get_start_time_min
C:\Users\hag\AppData\Local\Temp/ccHKG4gi.s:181    .text.set_start_time_min:00000000 set_start_time_min
C:\Users\hag\AppData\Local\Temp/ccHKG4gi.s:190    .text.get_start_time_sec:00000000 get_start_time_sec
C:\Users\hag\AppData\Local\Temp/ccHKG4gi.s:200    .text.set_start_time_sec:00000000 set_start_time_sec
C:\Users\hag\AppData\Local\Temp/ccHKG4gi.s:209    .text.ac_ii_init:00000000 ac_ii_init
C:\Users\hag\AppData\Local\Temp/ccHKG4gi.s:222    .text.set_power_ac:00000000 set_power_ac
C:\Users\hag\AppData\Local\Temp/ccHKG4gi.s:243    .text.set_power_ii:00000000 set_power_ii
C:\Users\hag\AppData\Local\Temp/ccHKG4gi.s:264    .text.otau_get_count_channels:00000000 otau_get_count_channels
C:\Users\hag\AppData\Local\Temp/ccHKG4gi.s:2916   .data:00000036 otau_count_channels
C:\Users\hag\AppData\Local\Temp/ccHKG4gi.s:274    .text.otdr_reset:00000000 otdr_reset
C:\Users\hag\AppData\Local\Temp/ccHKG4gi.s:307    .text.init_timer1:00000000 init_timer1
C:\Users\hag\AppData\Local\Temp/ccHKG4gi.s:325    .text.enable_timer1:00000000 enable_timer1
C:\Users\hag\AppData\Local\Temp/ccHKG4gi.s:2910   .bss:00000001 enable_timer1_flag
C:\Users\hag\AppData\Local\Temp/ccHKG4gi.s:336    .text.disable_timer1:00000000 disable_timer1
C:\Users\hag\AppData\Local\Temp/ccHKG4gi.s:346    .text.stop_timer1:00000000 stop_timer1
C:\Users\hag\AppData\Local\Temp/ccHKG4gi.s:359    .text.charon_reset:00000000 charon_reset
C:\Users\hag\AppData\Local\Temp/ccHKG4gi.s:381    .text.__vector_5:00000000 __vector_5
                             .bss:0000000a otau_event
C:\Users\hag\AppData\Local\Temp/ccHKG4gi.s:434    .text.__vector_2:00000000 __vector_2
C:\Users\hag\AppData\Local\Temp/ccHKG4gi.s:2949   .bss:0000000c power_sw_event
C:\Users\hag\AppData\Local\Temp/ccHKG4gi.s:490    .bootloader:00000000 boot
C:\Users\hag\AppData\Local\Temp/ccHKG4gi.s:1280   .text.flash_boot:00000000 flash_boot
C:\Users\hag\AppData\Local\Temp/ccHKG4gi.s:1768   .text.otdr_init:00000000 otdr_init
C:\Users\hag\AppData\Local\Temp/ccHKG4gi.s:1785   .text.otau_reset:00000000 otau_reset
C:\Users\hag\AppData\Local\Temp/ccHKG4gi.s:1810   .text.otau_get_channel:00000000 otau_get_channel
C:\Users\hag\AppData\Local\Temp/ccHKG4gi.s:2947   .bss:00000006 old_tik
                            *COM*:00000004 new_tik
C:\Users\hag\AppData\Local\Temp/ccHKG4gi.s:1973   .text.otau_check_alive:00000000 otau_check_alive
C:\Users\hag\AppData\Local\Temp/ccHKG4gi.s:1991   .text.otau_init:00000000 otau_init
C:\Users\hag\AppData\Local\Temp/ccHKG4gi.s:2198   .text.otau_set_channel:00000000 otau_set_channel
C:\Users\hag\AppData\Local\Temp/ccHKG4gi.s:2291   .text.write_ini:00000000 write_ini
C:\Users\hag\AppData\Local\Temp/ccHKG4gi.s:2305   .text.read_ini:00000000 read_ini
C:\Users\hag\AppData\Local\Temp/ccHKG4gi.s:2319   .text.set_power_sw:00000000 set_power_sw
C:\Users\hag\AppData\Local\Temp/ccHKG4gi.s:2332   .text.Power_Led_Thread:00000000 Power_Led_Thread
C:\Users\hag\AppData\Local\Temp/ccHKG4gi.s:2935   .bss:00000004 power_led_flag
C:\Users\hag\AppData\Local\Temp/ccHKG4gi.s:2396   .text.get_power_sw:00000000 get_power_sw
C:\Users\hag\AppData\Local\Temp/ccHKG4gi.s:2408   .text.Power_Sw_Thread:00000000 Power_Sw_Thread
C:\Users\hag\AppData\Local\Temp/ccHKG4gi.s:2478   .text.set_rtu_number:00000000 set_rtu_number
C:\Users\hag\AppData\Local\Temp/ccHKG4gi.s:2503   .text.get_rtu_number:00000000 get_rtu_number
C:\Users\hag\AppData\Local\Temp/ccHKG4gi.s:2523   .text.WIN_Load_Thread:00000000 WIN_Load_Thread
C:\Users\hag\AppData\Local\Temp/ccHKG4gi.s:2923   .bss:00000002 win_loaded
C:\Users\hag\AppData\Local\Temp/ccHKG4gi.s:2904   .bss:00000000 otdr_rs232_manual
GAS LISTING C:\Users\hag\AppData\Local\Temp/ccHKG4gi.s 			page 54


C:\Users\hag\AppData\Local\Temp/ccHKG4gi.s:2929   .bss:00000003 con_otdr
C:\Users\hag\AppData\Local\Temp/ccHKG4gi.s:2652   .text.OTAU_Thread:00000000 OTAU_Thread
C:\Users\hag\AppData\Local\Temp/ccHKG4gi.s:2825   .text.__vector_14:00000000 __vector_14
                            *COM*:00000001 loading_min
                            *COM*:00000001 loading_sec
C:\Users\hag\AppData\Local\Temp/ccHKG4gi.s:2941   .bss:00000005 power_sw_flag

UNDEFINED SYMBOLS
uart0_send
uart0_rec_buff
uart0_send_boot
uart0_rec_buff_boot
uart0_send_buff_boot
SPI_init
uartFile1
fwrite
NutGetMillis
NutSleep
fread
sscanf
sprintf
__eewr_block_m128
__eerd_block_m128
__eewr_byte_m128
display_show
NutThreadYield
__eerd_byte_m128
NutEventWaitNext
__eewr_word_m128
__eerd_dword_m128
scanf
putchar
pc_loaded
__do_copy_data
__do_clear_bss
